EXPORTS 
	??_R0?AV?$_Func_base@XAEAVAssembler@x86@_abi_1_10@asmjit@@@std@@@8 	 DATA
	??_R0?AV?$_Iosb@H@std@@@8 	 DATA
	??_R0?AV?$_Ref_count_obj2@VFBAllocator@PLH@@@std@@@8 	 DATA
	??_R0?AV?$basic_ios@DU?$char_traits@D@std@@@std@@@8 	 DATA
	??_R0?AV?$basic_iostream@DU?$char_traits@D@std@@@std@@@8 	 DATA
	??_R0?AV?$basic_istream@DU?$char_traits@D@std@@@std@@@8 	 DATA
	??_R0?AV?$basic_ostream@DU?$char_traits@D@std@@@std@@@8 	 DATA
	??_R0?AV?$basic_ostringstream@DU?$char_traits@D@std@@V?$allocator@D@2@@std@@@8 	 DATA
	??_R0?AV?$basic_streambuf@DU?$char_traits@D@std@@@std@@@8 	 DATA
	??_R0?AV?$basic_stringbuf@DU?$char_traits@D@std@@V?$allocator@D@2@@std@@@8 	 DATA
	??_R0?AV?$basic_stringstream@DU?$char_traits@D@std@@V?$allocator@D@2@@std@@@8 	 DATA
	??_R0?AVAVehHook@PLH@@@8 	 DATA
	??_R0?AVBreakPointHook@PLH@@@8 	 DATA
	??_R0?AVDetour@PLH@@@8 	 DATA
	??_R0?AVEatHook@PLH@@@8 	 DATA
	??_R0?AVErrorLog@PLH@@@8 	 DATA
	??_R0?AVHWBreakPointHook@PLH@@@8 	 DATA
	??_R0?AVIHook@PLH@@@8 	 DATA
	??_R0?AVILCallback@PLH@@@8 	 DATA
	??_R0?AVIatHook@PLH@@@8 	 DATA
	??_R0?AVLogger@PLH@@@8 	 DATA
	??_R0?AVMemAccessor@PLH@@@8 	 DATA
	??_R0?AVVFuncSwapHook@PLH@@@8 	 DATA
	??_R0?AVVTableSwapHook@PLH@@@8 	 DATA
	??_R0?AVZydisDisassembler@PLH@@@8 	 DATA
	??_R0?AV_Ref_count_base@std@@@8 	 DATA
	??_R0?AVbad_alloc@std@@@8 	 DATA
	??_R0?AVbad_array_new_length@std@@@8 	 DATA
	??_R0?AVexception@std@@@8 	 DATA
	??_R0?AVios_base@std@@@8 	 DATA
	??_R0?AVx64Detour@PLH@@@8 	 DATA
	??_R0?AVx86Detour@PLH@@@8 	 DATA
	??_R0PEAD@8 	 DATA
	??_R0PEAX@8 	 DATA
	?m_accessor@Instruction@PLH@@0VMemAccessor@2@A 	 DATA
	?m_hHandler@AVehHook@PLH@@1PEAXEA 	 DATA
	?m_impls@AVehHook@PLH@@1V?$unordered_set@UAVehHookImpEntry@PLH@@U?$hash@UAVehHookImpEntry@PLH@@@std@@U?$equal_to@UAVehHookImpEntry@PLH@@@4@V?$allocator@UAVehHookImpEntry@PLH@@@4@@std@@A 	 DATA
	?m_logger@Log@PLH@@0V?$shared_ptr@VLogger@PLH@@@std@@A 	 DATA
	?m_onException@AVehHook@PLH@@1V?$EventDispatcher@$$A6A_NPEAU_EXCEPTION_POINTERS@@PEAK@Z@2@A 	 DATA
	?m_onUnhandledException@AVehHook@PLH@@1V?$EventDispatcher@$$A6A_NPEAU_EXCEPTION_POINTERS@@PEAK@Z@2@A 	 DATA
	?m_refCount@AVehHook@PLH@@1VRefCounter@2@A 	 DATA
	??$?0$$QEA_K$$Z$$V@?$pair@$$CB_KV?$shared_ptr@VFBAllocator@PLH@@@std@@@std@@QEAA@Upiecewise_construct_t@1@V?$tuple@$$QEA_K@1@V?$tuple@$$V@1@@Z
	??$?0$$V@?$_Compressed_pair@U?$default_delete@$$BY0A@_K@std@@PEA_K$00@std@@QEAA@U_Zero_then_variadic_args_t@1@@Z
	??$?0$$V@?$_Compressed_pair@V?$allocator@D@std@@V?$_String_val@U?$_Simple_types@D@std@@@2@$00@std@@QEAA@U_Zero_then_variadic_args_t@1@@Z
	??$?0$$V@?$_Compressed_pair@V?$allocator@E@std@@V?$_Vector_val@U?$_Simple_types@E@std@@@2@$00@std@@QEAA@U_Zero_then_variadic_args_t@1@@Z
	??$?0$$V@?$_Compressed_pair@V?$allocator@U?$_Tree_node@U?$pair@$$CBG_K@std@@PEAX@std@@@std@@V?$_Tree_val@U?$_Tree_simple_types@U?$pair@$$CBG_K@std@@@std@@@2@$00@std@@QEAA@U_Zero_then_variadic_args_t@1@@Z
	??$?0$$V@?$_Compressed_pair@V?$allocator@U?$_Tree_node@U?$pair@$$CBV?$basic_string@DU?$char_traits@D@std@@V?$allocator@D@2@@std@@V12@@std@@PEAX@std@@@std@@V?$_Tree_val@U?$_Tree_simple_types@U?$pair@$$CBV?$basic_string@DU?$char_traits@D@std@@V?$allocator@D@2@@std@@V12@@std@@@std@@@2@$00@std@@QEAA@U_Zero_then_variadic_args_t@1@@Z
	??$?0$$V@?$_Compressed_pair@V?$allocator@U?$_Tree_node@U?$pair@$$CBW4ZydisRegisterClass_@@W4ZydisRegister_@@@std@@PEAX@std@@@std@@V?$_Tree_val@U?$_Tree_simple_types@U?$pair@$$CBW4ZydisRegisterClass_@@W4ZydisRegister_@@@std@@@std@@@2@$00@std@@QEAA@U_Zero_then_variadic_args_t@1@@Z
	??$?0$$V@?$_Compressed_pair@V?$allocator@U?$_Tree_node@U?$pair@$$CBW4ZydisRegister_@@W41@@std@@PEAX@std@@@std@@V?$_Tree_val@U?$_Tree_simple_types@U?$pair@$$CBW4ZydisRegister_@@W41@@std@@@std@@@2@$00@std@@QEAA@U_Zero_then_variadic_args_t@1@@Z
	??$?0$$V@?$_Compressed_pair@V?$allocator@U?$_Tree_node@V?$basic_string@DU?$char_traits@D@std@@V?$allocator@D@2@@std@@PEAX@std@@@std@@V?$_Tree_val@U?$_Tree_simple_types@V?$basic_string@DU?$char_traits@D@std@@V?$allocator@D@2@@std@@@std@@@2@$00@std@@QEAA@U_Zero_then_variadic_args_t@1@@Z
	??$?0$$V@?$_Compressed_pair@V?$allocator@UError@PLH@@@std@@V?$_Vector_val@U?$_Simple_types@UError@PLH@@@std@@@2@$00@std@@QEAA@U_Zero_then_variadic_args_t@1@@Z
	??$?0$$V@?$_Compressed_pair@V?$allocator@V?$basic_string@DU?$char_traits@D@std@@V?$allocator@D@2@@std@@@std@@V?$_Vector_val@U?$_Simple_types@V?$basic_string@DU?$char_traits@D@std@@V?$allocator@D@2@@std@@@std@@@2@$00@std@@QEAA@U_Zero_then_variadic_args_t@1@@Z
	??$?0$$V@?$_Compressed_pair@V?$allocator@V?$shared_ptr@VFBAllocator@PLH@@@std@@@std@@V?$_Vector_val@U?$_Simple_types@V?$shared_ptr@VFBAllocator@PLH@@@std@@@std@@@2@$00@std@@QEAA@U_Zero_then_variadic_args_t@1@@Z
	??$?0$$V@?$_Compressed_pair@V?$allocator@VInstruction@PLH@@@std@@V?$_Vector_val@U?$_Simple_types@VInstruction@PLH@@@std@@@2@$00@std@@QEAA@U_Zero_then_variadic_args_t@1@@Z
	??$?0$$V@?$_Compressed_pair@V?$allocator@VReg@x86@_abi_1_10@asmjit@@@std@@V?$_Vector_val@U?$_Simple_types@VReg@x86@_abi_1_10@asmjit@@@std@@@2@$00@std@@QEAA@U_Zero_then_variadic_args_t@1@@Z
	??$?0$$V@?$_Compressed_pair@V?$allocator@W4OperandType@Instruction@PLH@@@std@@V?$_Vector_val@U?$_Simple_types@W4OperandType@Instruction@PLH@@@std@@@2@$00@std@@QEAA@U_Zero_then_variadic_args_t@1@@Z
	??$?0$$V@?$_Compressed_pair@V?$allocator@W4TypeId@_abi_1_10@asmjit@@@std@@V?$_Vector_val@U?$_Simple_types@W4TypeId@_abi_1_10@asmjit@@@std@@@2@$00@std@@QEAA@U_Zero_then_variadic_args_t@1@@Z
	??$?0$$V@?$_Compressed_pair@V?$allocator@_W@std@@V?$_String_val@U?$_Simple_types@_W@std@@@2@$00@std@@QEAA@U_Zero_then_variadic_args_t@1@@Z
	??$?0AEAPEAU?$_List_node@U?$pair@$$CB_KV?$shared_ptr@VFBAllocator@PLH@@@std@@@std@@PEAX@std@@_N$0A@@?$pair@PEAU?$_List_node@U?$pair@$$CB_KV?$shared_ptr@VFBAllocator@PLH@@@std@@@std@@PEAX@std@@_N@std@@QEAA@AEAPEAU?$_List_node@U?$pair@$$CB_KV?$shared_ptr@VFBAllocator@PLH@@@std@@@std@@PEAX@1@$$QEA_N@Z
	??$?0AEAUTranslationResult@PLH@@$0A@@?$optional@UTranslationResult@PLH@@@std@@QEAA@AEAUTranslationResult@PLH@@@Z
	??$?0AEAUTranslationResult@PLH@@@?$_Non_trivial_copy@U?$_Optional_construct_base@UTranslationResult@PLH@@@std@@@std@@QEAA@Uin_place_t@1@AEAUTranslationResult@PLH@@@Z
	??$?0AEAUTranslationResult@PLH@@@?$_Non_trivial_copy_assign@U?$_Optional_construct_base@UTranslationResult@PLH@@@std@@UTranslationResult@PLH@@@std@@QEAA@Uin_place_t@1@AEAUTranslationResult@PLH@@@Z
	??$?0AEAUTranslationResult@PLH@@@?$_Non_trivial_move@U?$_Optional_construct_base@UTranslationResult@PLH@@@std@@UTranslationResult@PLH@@@std@@QEAA@Uin_place_t@1@AEAUTranslationResult@PLH@@@Z
	??$?0AEAUTranslationResult@PLH@@@?$_Non_trivial_move_assign@U?$_Optional_construct_base@UTranslationResult@PLH@@@std@@UTranslationResult@PLH@@@std@@QEAA@Uin_place_t@1@AEAUTranslationResult@PLH@@@Z
	??$?0AEAUTranslationResult@PLH@@@?$_Optional_construct_base@UTranslationResult@PLH@@@std@@QEAA@Uin_place_t@1@AEAUTranslationResult@PLH@@@Z
	??$?0AEAUTranslationResult@PLH@@@?$_Optional_destruct_base@UTranslationResult@PLH@@$0A@@std@@QEAA@Uin_place_t@1@AEAUTranslationResult@PLH@@@Z
	??$?0AEAY02$$CBDAEAY03$$CBD$0A@@?$pair@$$CBV?$basic_string@DU?$char_traits@D@std@@V?$allocator@D@2@@std@@V12@@std@@QEAA@AEAY02$$CBDAEAY03$$CBD@Z
	??$?0AEAY03$$CBDAEAY03$$CBD$0A@@?$pair@$$CBV?$basic_string@DU?$char_traits@D@std@@V?$allocator@D@2@@std@@V12@@std@@QEAA@AEAY03$$CBD0@Z
	??$?0AEA_K$0A@@?$optional@_K@std@@QEAA@AEA_K@Z
	??$?0AEA_K@?$_Optional_construct_base@_K@std@@QEAA@Uin_place_t@1@AEA_K@Z
	??$?0AEA_K@?$_Optional_destruct_base@_K$00@std@@QEAA@Uin_place_t@1@AEA_K@Z
	??$?0AEA_KAEAV?$vector@VInstruction@PLH@@V?$allocator@VInstruction@PLH@@@std@@@std@@$0A@@?$pair@$$CB_KV?$vector@VInstruction@PLH@@V?$allocator@VInstruction@PLH@@@std@@@std@@@std@@QEAA@AEA_KAEAV?$vector@VInstruction@PLH@@V?$allocator@VInstruction@PLH@@@std@@@1@@Z
	??$?0AEA_KAEAV?$vector@VInstruction@PLH@@V?$allocator@VInstruction@PLH@@@std@@@std@@@?$_List_node_emplace_op2@V?$allocator@U?$_List_node@U?$pair@$$CB_KV?$vector@VInstruction@PLH@@V?$allocator@VInstruction@PLH@@@std@@@std@@@std@@PEAX@std@@@std@@@std@@QEAA@AEAV?$allocator@U?$_List_node@U?$pair@$$CB_KV?$vector@VInstruction@PLH@@V?$allocator@VInstruction@PLH@@@std@@@std@@@std@@PEAX@std@@@1@AEA_KAEAV?$vector@VInstruction@PLH@@V?$allocator@VInstruction@PLH@@@std@@@1@@Z
	??$?0AEA_KAEA_KAEAEAEAE@?$_Ref_count_obj2@VFBAllocator@PLH@@@std@@QEAA@AEA_K0AEAE1@Z
	??$?0AEBG$$Z$$V@?$pair@$$CBG_K@std@@QEAA@Upiecewise_construct_t@1@V?$tuple@AEBG@1@V?$tuple@$$V@1@@Z
	??$?0AEBG$0A@@?$tuple@AEBG@std@@QEAA@AEBG@Z
	??$?0AEBG@?$_Tuple_val@AEBG@std@@QEAA@AEBG@Z
	??$?0AEBQEAU?$_Tree_node@U?$pair@$$CBG_K@std@@PEAX@std@@_N$0A@@?$pair@PEAU?$_Tree_node@U?$pair@$$CBG_K@std@@PEAX@std@@_N@std@@QEAA@AEBQEAU?$_Tree_node@U?$pair@$$CBG_K@std@@PEAX@1@$$QEA_N@Z
	??$?0AEBU?$less@G@std@@U_Zero_then_variadic_args_t@1@@?$_Compressed_pair@U?$less@G@std@@V?$_Compressed_pair@V?$allocator@U?$_Tree_node@U?$pair@$$CBG_K@std@@PEAX@std@@@std@@V?$_Tree_val@U?$_Tree_simple_types@U?$pair@$$CBG_K@std@@@std@@@2@$00@2@$00@std@@QEAA@U_One_then_variadic_args_t@1@AEBU?$less@G@1@$$QEAU_Zero_then_variadic_args_t@1@@Z
	??$?0AEBU?$less@V?$basic_string@DU?$char_traits@D@std@@V?$allocator@D@2@@std@@@std@@U_Zero_then_variadic_args_t@1@@?$_Compressed_pair@U?$less@V?$basic_string@DU?$char_traits@D@std@@V?$allocator@D@2@@std@@@std@@V?$_Compressed_pair@V?$allocator@U?$_Tree_node@U?$pair@$$CBV?$basic_string@DU?$char_traits@D@std@@V?$allocator@D@2@@std@@V12@@std@@PEAX@std@@@std@@V?$_Tree_val@U?$_Tree_simple_types@U?$pair@$$CBV?$basic_string@DU?$char_traits@D@std@@V?$allocator@D@2@@std@@V12@@std@@@std@@@2@$00@2@$00@std@@QEAA@U_One_then_variadic_args_t@1@AEBU?$less@V?$basic_string@DU?$char_traits@D@std@@V?$allocator@D@2@@std@@@1@$$QEAU_Zero_then_variadic_args_t@1@@Z
	??$?0AEBU?$less@V?$basic_string@DU?$char_traits@D@std@@V?$allocator@D@2@@std@@@std@@U_Zero_then_variadic_args_t@1@@?$_Compressed_pair@U?$less@V?$basic_string@DU?$char_traits@D@std@@V?$allocator@D@2@@std@@@std@@V?$_Compressed_pair@V?$allocator@U?$_Tree_node@V?$basic_string@DU?$char_traits@D@std@@V?$allocator@D@2@@std@@PEAX@std@@@std@@V?$_Tree_val@U?$_Tree_simple_types@V?$basic_string@DU?$char_traits@D@std@@V?$allocator@D@2@@std@@@std@@@2@$00@2@$00@std@@QEAA@U_One_then_variadic_args_t@1@AEBU?$less@V?$basic_string@DU?$char_traits@D@std@@V?$allocator@D@2@@std@@@1@$$QEAU_Zero_then_variadic_args_t@1@@Z
	??$?0AEBU?$less@W4ZydisRegisterClass_@@@std@@U_Zero_then_variadic_args_t@1@@?$_Compressed_pair@U?$less@W4ZydisRegisterClass_@@@std@@V?$_Compressed_pair@V?$allocator@U?$_Tree_node@U?$pair@$$CBW4ZydisRegisterClass_@@W4ZydisRegister_@@@std@@PEAX@std@@@std@@V?$_Tree_val@U?$_Tree_simple_types@U?$pair@$$CBW4ZydisRegisterClass_@@W4ZydisRegister_@@@std@@@std@@@2@$00@2@$00@std@@QEAA@U_One_then_variadic_args_t@1@AEBU?$less@W4ZydisRegisterClass_@@@1@$$QEAU_Zero_then_variadic_args_t@1@@Z
	??$?0AEBU?$less@W4ZydisRegister_@@@std@@U_Zero_then_variadic_args_t@1@@?$_Compressed_pair@U?$less@W4ZydisRegister_@@@std@@V?$_Compressed_pair@V?$allocator@U?$_Tree_node@U?$pair@$$CBW4ZydisRegister_@@W41@@std@@PEAX@std@@@std@@V?$_Tree_val@U?$_Tree_simple_types@U?$pair@$$CBW4ZydisRegister_@@W41@@std@@@std@@@2@$00@2@$00@std@@QEAA@U_One_then_variadic_args_t@1@AEBU?$less@W4ZydisRegister_@@@1@$$QEAU_Zero_then_variadic_args_t@1@@Z
	??$?0AEBU?$pair@$$CBV?$basic_string@DU?$char_traits@D@std@@V?$allocator@D@2@@std@@V12@@std@@@?$_Tree_temp_node@V?$allocator@U?$_Tree_node@U?$pair@$$CBV?$basic_string@DU?$char_traits@D@std@@V?$allocator@D@2@@std@@V12@@std@@PEAX@std@@@std@@@std@@QEAA@AEAV?$allocator@U?$_Tree_node@U?$pair@$$CBV?$basic_string@DU?$char_traits@D@std@@V?$allocator@D@2@@std@@V12@@std@@PEAX@std@@@1@PEAU?$_Tree_node@U?$pair@$$CBV?$basic_string@DU?$char_traits@D@std@@V?$allocator@D@2@@std@@V12@@std@@PEAX@1@AEBU?$pair@$$CBV?$basic_string@DU?$char_traits@D@std@@V?$allocator@D@2@@std@@V12@@1@@Z
	??$?0AEBU?$pair@$$CBW4ZydisRegisterClass_@@W4ZydisRegister_@@@std@@@?$_Tree_temp_node@V?$allocator@U?$_Tree_node@U?$pair@$$CBW4ZydisRegisterClass_@@W4ZydisRegister_@@@std@@PEAX@std@@@std@@@std@@QEAA@AEAV?$allocator@U?$_Tree_node@U?$pair@$$CBW4ZydisRegisterClass_@@W4ZydisRegister_@@@std@@PEAX@std@@@1@PEAU?$_Tree_node@U?$pair@$$CBW4ZydisRegisterClass_@@W4ZydisRegister_@@@std@@PEAX@1@AEBU?$pair@$$CBW4ZydisRegisterClass_@@W4ZydisRegister_@@@1@@Z
	??$?0AEBU?$pair@$$CBW4ZydisRegister_@@W41@@std@@@?$_Tree_temp_node@V?$allocator@U?$_Tree_node@U?$pair@$$CBW4ZydisRegister_@@W41@@std@@PEAX@std@@@std@@@std@@QEAA@AEAV?$allocator@U?$_Tree_node@U?$pair@$$CBW4ZydisRegister_@@W41@@std@@PEAX@std@@@1@PEAU?$_Tree_node@U?$pair@$$CBW4ZydisRegister_@@W41@@std@@PEAX@1@AEBU?$pair@$$CBW4ZydisRegister_@@W41@@1@@Z
	??$?0AEBUAVehHookImpEntry@PLH@@@?$_List_node_emplace_op2@V?$allocator@U?$_List_node@UAVehHookImpEntry@PLH@@PEAX@std@@@std@@@std@@QEAA@AEAV?$allocator@U?$_List_node@UAVehHookImpEntry@PLH@@PEAX@std@@@1@AEBUAVehHookImpEntry@PLH@@@Z
	??$?0AEBUpiecewise_construct_t@std@@V?$tuple@$$QEA_K@1@V?$tuple@$$V@1@@?$_List_node_emplace_op2@V?$allocator@U?$_List_node@U?$pair@$$CB_KV?$shared_ptr@VFBAllocator@PLH@@@std@@@std@@PEAX@std@@@std@@@std@@QEAA@AEAV?$allocator@U?$_List_node@U?$pair@$$CB_KV?$shared_ptr@VFBAllocator@PLH@@@std@@@std@@PEAX@std@@@1@AEBUpiecewise_construct_t@1@$$QEAV?$tuple@$$QEA_K@1@$$QEAV?$tuple@$$V@1@@Z
	??$?0AEBUpiecewise_construct_t@std@@V?$tuple@AEBG@1@V?$tuple@$$V@1@@?$_Tree_temp_node@V?$allocator@U?$_Tree_node@U?$pair@$$CBG_K@std@@PEAX@std@@@std@@@std@@QEAA@AEAV?$allocator@U?$_Tree_node@U?$pair@$$CBG_K@std@@PEAX@std@@@1@PEAU?$_Tree_node@U?$pair@$$CBG_K@std@@PEAX@1@AEBUpiecewise_construct_t@1@$$QEAV?$tuple@AEBG@1@$$QEAV?$tuple@$$V@1@@Z
	??$?0AEBV?$allocator@D@std@@$$V@?$_Compressed_pair@V?$allocator@D@std@@V?$_String_val@U?$_Simple_types@D@std@@@2@$00@std@@QEAA@U_One_then_variadic_args_t@1@AEBV?$allocator@D@1@@Z
	??$?0AEBV?$allocator@E@std@@$$V@?$_Compressed_pair@V?$allocator@E@std@@V?$_Vector_val@U?$_Simple_types@E@std@@@2@$00@std@@QEAA@U_One_then_variadic_args_t@1@AEBV?$allocator@E@1@@Z
	??$?0AEBV?$allocator@U?$pair@$$CB_KV?$shared_ptr@VFBAllocator@PLH@@@std@@@std@@@std@@$$V@?$_Compressed_pair@V?$allocator@U?$_List_node@U?$pair@$$CB_KV?$shared_ptr@VFBAllocator@PLH@@@std@@@std@@PEAX@std@@@std@@V?$_List_val@U?$_List_simple_types@U?$pair@$$CB_KV?$shared_ptr@VFBAllocator@PLH@@@std@@@std@@@std@@@2@$00@std@@QEAA@U_One_then_variadic_args_t@1@AEBV?$allocator@U?$pair@$$CB_KV?$shared_ptr@VFBAllocator@PLH@@@std@@@std@@@1@@Z
	??$?0AEBV?$allocator@U?$pair@$$CB_KV?$shared_ptr@VFBAllocator@PLH@@@std@@@std@@@std@@$$V@?$_Compressed_pair@V?$allocator@V?$_List_unchecked_iterator@V?$_List_val@U?$_List_simple_types@U?$pair@$$CB_KV?$shared_ptr@VFBAllocator@PLH@@@std@@@std@@@std@@@std@@@std@@@std@@V?$_Vector_val@U?$_Simple_types@V?$_List_unchecked_iterator@V?$_List_val@U?$_List_simple_types@U?$pair@$$CB_KV?$shared_ptr@VFBAllocator@PLH@@@std@@@std@@@std@@@std@@@std@@@std@@@2@$00@std@@QEAA@U_One_then_variadic_args_t@1@AEBV?$allocator@U?$pair@$$CB_KV?$shared_ptr@VFBAllocator@PLH@@@std@@@std@@@1@@Z
	??$?0AEBV?$allocator@U?$pair@$$CB_KV?$shared_ptr@VFBAllocator@PLH@@@std@@@std@@@std@@$0A@@?$_Hash_vec@V?$allocator@V?$_List_unchecked_iterator@V?$_List_val@U?$_List_simple_types@U?$pair@$$CB_KV?$shared_ptr@VFBAllocator@PLH@@@std@@@std@@@std@@@std@@@std@@@std@@@std@@QEAA@AEBV?$allocator@U?$pair@$$CB_KV?$shared_ptr@VFBAllocator@PLH@@@std@@@std@@@1@@Z
	??$?0AEBV?$allocator@U?$pair@$$CB_KV?$vector@VInstruction@PLH@@V?$allocator@VInstruction@PLH@@@std@@@std@@@std@@@std@@$$V@?$_Compressed_pair@V?$allocator@U?$_List_node@U?$pair@$$CB_KV?$vector@VInstruction@PLH@@V?$allocator@VInstruction@PLH@@@std@@@std@@@std@@PEAX@std@@@std@@V?$_List_val@U?$_List_simple_types@U?$pair@$$CB_KV?$vector@VInstruction@PLH@@V?$allocator@VInstruction@PLH@@@std@@@std@@@std@@@std@@@2@$00@std@@QEAA@U_One_then_variadic_args_t@1@AEBV?$allocator@U?$pair@$$CB_KV?$vector@VInstruction@PLH@@V?$allocator@VInstruction@PLH@@@std@@@std@@@std@@@1@@Z
	??$?0AEBV?$allocator@U?$pair@$$CB_KV?$vector@VInstruction@PLH@@V?$allocator@VInstruction@PLH@@@std@@@std@@@std@@@std@@$$V@?$_Compressed_pair@V?$allocator@V?$_List_unchecked_iterator@V?$_List_val@U?$_List_simple_types@U?$pair@$$CB_KV?$vector@VInstruction@PLH@@V?$allocator@VInstruction@PLH@@@std@@@std@@@std@@@std@@@std@@@std@@@std@@V?$_Vector_val@U?$_Simple_types@V?$_List_unchecked_iterator@V?$_List_val@U?$_List_simple_types@U?$pair@$$CB_KV?$vector@VInstruction@PLH@@V?$allocator@VInstruction@PLH@@@std@@@std@@@std@@@std@@@std@@@std@@@std@@@2@$00@std@@QEAA@U_One_then_variadic_args_t@1@AEBV?$allocator@U?$pair@$$CB_KV?$vector@VInstruction@PLH@@V?$allocator@VInstruction@PLH@@@std@@@std@@@std@@@1@@Z
	??$?0AEBV?$allocator@U?$pair@$$CB_KV?$vector@VInstruction@PLH@@V?$allocator@VInstruction@PLH@@@std@@@std@@@std@@@std@@$0A@@?$_Hash_vec@V?$allocator@V?$_List_unchecked_iterator@V?$_List_val@U?$_List_simple_types@U?$pair@$$CB_KV?$vector@VInstruction@PLH@@V?$allocator@VInstruction@PLH@@@std@@@std@@@std@@@std@@@std@@@std@@@std@@@std@@QEAA@AEBV?$allocator@U?$pair@$$CB_KV?$vector@VInstruction@PLH@@V?$allocator@VInstruction@PLH@@@std@@@std@@@std@@@1@@Z
	??$?0AEBV?$allocator@UAVehHookImpEntry@PLH@@@std@@$$V@?$_Compressed_pair@V?$allocator@U?$_List_node@UAVehHookImpEntry@PLH@@PEAX@std@@@std@@V?$_List_val@U?$_List_simple_types@UAVehHookImpEntry@PLH@@@std@@@2@$00@std@@QEAA@U_One_then_variadic_args_t@1@AEBV?$allocator@UAVehHookImpEntry@PLH@@@1@@Z
	??$?0AEBV?$allocator@UAVehHookImpEntry@PLH@@@std@@$$V@?$_Compressed_pair@V?$allocator@V?$_List_unchecked_const_iterator@V?$_List_val@U?$_List_simple_types@UAVehHookImpEntry@PLH@@@std@@@std@@U_Iterator_base0@2@@std@@@std@@V?$_Vector_val@U?$_Simple_types@V?$_List_unchecked_const_iterator@V?$_List_val@U?$_List_simple_types@UAVehHookImpEntry@PLH@@@std@@@std@@U_Iterator_base0@2@@std@@@std@@@2@$00@std@@QEAA@U_One_then_variadic_args_t@1@AEBV?$allocator@UAVehHookImpEntry@PLH@@@1@@Z
	??$?0AEBV?$allocator@UAVehHookImpEntry@PLH@@@std@@$0A@@?$_Hash_vec@V?$allocator@V?$_List_unchecked_const_iterator@V?$_List_val@U?$_List_simple_types@UAVehHookImpEntry@PLH@@@std@@@std@@U_Iterator_base0@2@@std@@@std@@@std@@QEAA@AEBV?$allocator@UAVehHookImpEntry@PLH@@@1@@Z
	??$?0AEBV?$allocator@VInstruction@PLH@@@std@@$$V@?$_Compressed_pair@V?$allocator@VInstruction@PLH@@@std@@V?$_Vector_val@U?$_Simple_types@VInstruction@PLH@@@std@@@2@$00@std@@QEAA@U_One_then_variadic_args_t@1@AEBV?$allocator@VInstruction@PLH@@@1@@Z
	??$?0AEBV?$allocator@_W@std@@$$V@?$_Compressed_pair@V?$allocator@_W@std@@V?$_String_val@U?$_Simple_types@_W@std@@@2@$00@std@@QEAA@U_One_then_variadic_args_t@1@AEBV?$allocator@_W@1@@Z
	??$?0AEBV?$basic_string@DU?$char_traits@D@std@@V?$allocator@D@2@@std@@@?$_Tree_temp_node@V?$allocator@U?$_Tree_node@V?$basic_string@DU?$char_traits@D@std@@V?$allocator@D@2@@std@@PEAX@std@@@std@@@std@@QEAA@AEAV?$allocator@U?$_Tree_node@V?$basic_string@DU?$char_traits@D@std@@V?$allocator@D@2@@std@@PEAX@std@@@1@PEAU?$_Tree_node@V?$basic_string@DU?$char_traits@D@std@@V?$allocator@D@2@@std@@PEAX@1@AEBV?$basic_string@DU?$char_traits@D@std@@V?$allocator@D@2@@1@@Z
	??$?0AEBVInstruction@PLH@@@?$_Alloc_temporary2@V?$allocator@VInstruction@PLH@@@std@@@std@@QEAA@AEAV?$allocator@VInstruction@PLH@@@1@AEBVInstruction@PLH@@@Z
	??$?0EX@Imm@_abi_1_10@asmjit@@QEAA@AEBEI@Z
	??$?0HX@Imm@_abi_1_10@asmjit@@QEAA@AEBHI@Z
	??$?0M@?$_Compressed_pair@U?$equal_to@UAVehHookImpEntry@PLH@@@std@@M$00@std@@QEAA@U_Zero_then_variadic_args_t@1@$$QEAM@Z
	??$?0M@?$_Compressed_pair@U?$equal_to@_K@std@@M$00@std@@QEAA@U_Zero_then_variadic_args_t@1@$$QEAM@Z
	??$?0PEAD$0A@@?$basic_string@DU?$char_traits@D@std@@V?$allocator@D@2@@std@@QEAA@PEAD0AEBV?$allocator@D@1@@Z
	??$?0PEAU?$_List_node@U?$pair@$$CB_KV?$shared_ptr@VFBAllocator@PLH@@@std@@@std@@PEAX@std@@_N$0A@@?$pair@PEAU?$_List_node@U?$pair@$$CB_KV?$shared_ptr@VFBAllocator@PLH@@@std@@@std@@PEAX@std@@_N@std@@QEAA@$$QEAPEAU?$_List_node@U?$pair@$$CB_KV?$shared_ptr@VFBAllocator@PLH@@@std@@@std@@PEAX@1@$$QEA_N@Z
	??$?0PEAU?$_Tree_node@U?$pair@$$CBG_K@std@@PEAX@std@@_N$0A@@?$pair@PEAU?$_Tree_node@U?$pair@$$CBG_K@std@@PEAX@std@@_N@std@@QEAA@$$QEAPEAU?$_Tree_node@U?$pair@$$CBG_K@std@@PEAX@1@$$QEA_N@Z
	??$?0QEAE$0A@@?$vector@EV?$allocator@E@std@@@std@@QEAA@PEAE0AEBV?$allocator@E@1@@Z
	??$?0U?$default_delete@$$BY0A@_K@std@@$0A@@?$unique_ptr@$$BY0A@_KU?$default_delete@$$BY0A@_K@std@@@std@@QEAA@$$T@Z
	??$?0U?$less@G@std@@U_One_then_variadic_args_t@1@V?$allocator@U?$_Tree_node@U?$pair@$$CBG_K@std@@PEAX@std@@@1@@?$_Compressed_pair@U?$less@G@std@@V?$_Compressed_pair@V?$allocator@U?$_Tree_node@U?$pair@$$CBG_K@std@@PEAX@std@@@std@@V?$_Tree_val@U?$_Tree_simple_types@U?$pair@$$CBG_K@std@@@std@@@2@$00@2@$00@std@@QEAA@U_One_then_variadic_args_t@1@$$QEAU?$less@G@1@$$QEAU21@$$QEAV?$allocator@U?$_Tree_node@U?$pair@$$CBG_K@std@@PEAX@std@@@1@@Z
	??$?0U?$pair@$$CB_KV?$shared_ptr@VFBAllocator@PLH@@@std@@@std@@@?$allocator@U?$_List_node@U?$pair@$$CB_KV?$shared_ptr@VFBAllocator@PLH@@@std@@@std@@PEAX@std@@@std@@QEAA@AEBV?$allocator@U?$pair@$$CB_KV?$shared_ptr@VFBAllocator@PLH@@@std@@@std@@@1@@Z
	??$?0U?$pair@$$CB_KV?$shared_ptr@VFBAllocator@PLH@@@std@@@std@@@?$allocator@V?$_List_unchecked_iterator@V?$_List_val@U?$_List_simple_types@U?$pair@$$CB_KV?$shared_ptr@VFBAllocator@PLH@@@std@@@std@@@std@@@std@@@std@@@std@@QEAA@AEBV?$allocator@U?$pair@$$CB_KV?$shared_ptr@VFBAllocator@PLH@@@std@@@std@@@1@@Z
	??$?0U?$pair@$$CB_KV?$vector@VInstruction@PLH@@V?$allocator@VInstruction@PLH@@@std@@@std@@@std@@@?$allocator@U?$_List_node@U?$pair@$$CB_KV?$vector@VInstruction@PLH@@V?$allocator@VInstruction@PLH@@@std@@@std@@@std@@PEAX@std@@@std@@QEAA@AEBV?$allocator@U?$pair@$$CB_KV?$vector@VInstruction@PLH@@V?$allocator@VInstruction@PLH@@@std@@@std@@@std@@@1@@Z
	??$?0U?$pair@$$CB_KV?$vector@VInstruction@PLH@@V?$allocator@VInstruction@PLH@@@std@@@std@@@std@@@?$allocator@V?$_List_unchecked_iterator@V?$_List_val@U?$_List_simple_types@U?$pair@$$CB_KV?$vector@VInstruction@PLH@@V?$allocator@VInstruction@PLH@@@std@@@std@@@std@@@std@@@std@@@std@@@std@@QEAA@AEBV?$allocator@U?$pair@$$CB_KV?$vector@VInstruction@PLH@@V?$allocator@VInstruction@PLH@@@std@@@std@@@std@@@1@@Z
	??$?0UAVehHookImpEntry@PLH@@@?$allocator@U?$_List_node@UAVehHookImpEntry@PLH@@PEAX@std@@@std@@QEAA@AEBV?$allocator@UAVehHookImpEntry@PLH@@@1@@Z
	??$?0UAVehHookImpEntry@PLH@@@?$allocator@V?$_List_unchecked_const_iterator@V?$_List_val@U?$_List_simple_types@UAVehHookImpEntry@PLH@@@std@@@std@@U_Iterator_base0@2@@std@@@std@@QEAA@AEBV?$allocator@UAVehHookImpEntry@PLH@@@1@@Z
	??$?0U_Exact_args_t@std@@$0A@@?$tuple@$$V@std@@QEAA@U_Exact_args_t@1@@Z
	??$?0U_Exact_args_t@std@@AEBG$$V$0A@@?$tuple@AEBG@std@@QEAA@U_Exact_args_t@1@AEBG@Z
	??$?0U_Exact_args_t@std@@_K$$V$0A@@?$tuple@$$QEA_K@std@@QEAA@U_Exact_args_t@1@$$QEA_K@Z
	??$?0U_Zero_then_variadic_args_t@std@@M@?$_Compressed_pair@U?$hash@UAVehHookImpEntry@PLH@@@std@@V?$_Compressed_pair@U?$equal_to@UAVehHookImpEntry@PLH@@@std@@M$00@2@$00@std@@QEAA@U_Zero_then_variadic_args_t@1@$$QEAU21@$$QEAM@Z
	??$?0U_Zero_then_variadic_args_t@std@@M@?$_Compressed_pair@U?$hash@_K@std@@V?$_Compressed_pair@U?$equal_to@_K@std@@M$00@2@$00@std@@QEAA@U_Zero_then_variadic_args_t@1@$$QEAU21@$$QEAM@Z
	??$?0V?$_List_iterator@V?$_List_val@U?$_List_simple_types@U?$pair@$$CB_KV?$vector@VInstruction@PLH@@V?$allocator@VInstruction@PLH@@@std@@@std@@@std@@@std@@@std@@@std@@_N$0A@@?$pair@V?$_List_iterator@V?$_List_val@U?$_List_simple_types@U?$pair@$$CB_KV?$vector@VInstruction@PLH@@V?$allocator@VInstruction@PLH@@@std@@@std@@@std@@@std@@@std@@@std@@_N@std@@QEAA@$$QEAV?$_List_iterator@V?$_List_val@U?$_List_simple_types@U?$pair@$$CB_KV?$vector@VInstruction@PLH@@V?$allocator@VInstruction@PLH@@@std@@@std@@@std@@@std@@@std@@@1@$$QEA_N@Z
	??$?0V?$_List_iterator@V?$_List_val@U?$_List_simple_types@UAVehHookImpEntry@PLH@@@std@@@std@@@std@@_N$0A@@?$pair@V?$_List_const_iterator@V?$_List_val@U?$_List_simple_types@UAVehHookImpEntry@PLH@@@std@@@std@@@std@@_N@std@@QEAA@$$QEAV?$_List_iterator@V?$_List_val@U?$_List_simple_types@UAVehHookImpEntry@PLH@@@std@@@std@@@1@$$QEA_N@Z
	??$?0V?$allocator@D@std@@$$V@?$_Compressed_pair@V?$allocator@D@std@@V?$_String_val@U?$_Simple_types@D@std@@@2@$00@std@@QEAA@U_One_then_variadic_args_t@1@$$QEAV?$allocator@D@1@@Z
	??$?0V?$allocator@E@std@@$$V@?$_Compressed_pair@V?$allocator@E@std@@V?$_Vector_val@U?$_Simple_types@E@std@@@2@$00@std@@QEAA@U_One_then_variadic_args_t@1@$$QEAV?$allocator@E@1@@Z
	??$?0V?$allocator@E@std@@PEAEPEAEPEAE@?$_Compressed_pair@V?$allocator@E@std@@V?$_Vector_val@U?$_Simple_types@E@std@@@2@$00@std@@QEAA@U_One_then_variadic_args_t@1@$$QEAV?$allocator@E@1@$$QEAPEAE22@Z
	??$?0V?$allocator@U?$_Tree_node@U?$pair@$$CBG_K@std@@PEAX@std@@@std@@$$V@?$_Compressed_pair@V?$allocator@U?$_Tree_node@U?$pair@$$CBG_K@std@@PEAX@std@@@std@@V?$_Tree_val@U?$_Tree_simple_types@U?$pair@$$CBG_K@std@@@std@@@2@$00@std@@QEAA@U_One_then_variadic_args_t@1@$$QEAV?$allocator@U?$_Tree_node@U?$pair@$$CBG_K@std@@PEAX@std@@@1@@Z
	??$?0V?$allocator@U?$_Tree_node@U?$pair@$$CBG_K@std@@PEAX@std@@@std@@@?$_Tree@V?$_Tmap_traits@G_KU?$less@G@std@@V?$allocator@U?$pair@$$CBG_K@std@@@2@$0A@@std@@@std@@QEAA@AEBV01@$$QEAV?$allocator@U?$_Tree_node@U?$pair@$$CBG_K@std@@PEAX@std@@@1@@Z
	??$?0V?$allocator@V?$basic_string@DU?$char_traits@D@std@@V?$allocator@D@2@@std@@@std@@PEAV?$basic_string@DU?$char_traits@D@std@@V?$allocator@D@2@@1@PEAV21@PEAV21@@?$_Compressed_pair@V?$allocator@V?$basic_string@DU?$char_traits@D@std@@V?$allocator@D@2@@std@@@std@@V?$_Vector_val@U?$_Simple_types@V?$basic_string@DU?$char_traits@D@std@@V?$allocator@D@2@@std@@@std@@@2@$00@std@@QEAA@U_One_then_variadic_args_t@1@$$QEAV?$allocator@V?$basic_string@DU?$char_traits@D@std@@V?$allocator@D@2@@std@@@1@$$QEAPEAV?$basic_string@DU?$char_traits@D@std@@V?$allocator@D@2@@1@22@Z
	??$?0V?$allocator@VInstruction@PLH@@@std@@$$V@?$_Compressed_pair@V?$allocator@VInstruction@PLH@@@std@@V?$_Vector_val@U?$_Simple_types@VInstruction@PLH@@@std@@@2@$00@std@@QEAA@U_One_then_variadic_args_t@1@$$QEAV?$allocator@VInstruction@PLH@@@1@@Z
	??$?0V?$allocator@VInstruction@PLH@@@std@@PEAVInstruction@PLH@@PEAV23@PEAV23@@?$_Compressed_pair@V?$allocator@VInstruction@PLH@@@std@@V?$_Vector_val@U?$_Simple_types@VInstruction@PLH@@@std@@@2@$00@std@@QEAA@U_One_then_variadic_args_t@1@$$QEAV?$allocator@VInstruction@PLH@@@1@$$QEAPEAVInstruction@PLH@@22@Z
	??$?0V?$allocator@W4OperandType@Instruction@PLH@@@std@@$$V@?$_Compressed_pair@V?$allocator@W4OperandType@Instruction@PLH@@@std@@V?$_Vector_val@U?$_Simple_types@W4OperandType@Instruction@PLH@@@std@@@2@$00@std@@QEAA@U_One_then_variadic_args_t@1@$$QEAV?$allocator@W4OperandType@Instruction@PLH@@@1@@Z
	??$?0V?$allocator@W4OperandType@Instruction@PLH@@@std@@PEAW4OperandType@Instruction@PLH@@PEAW4234@PEAW4234@@?$_Compressed_pair@V?$allocator@W4OperandType@Instruction@PLH@@@std@@V?$_Vector_val@U?$_Simple_types@W4OperandType@Instruction@PLH@@@std@@@2@$00@std@@QEAA@U_One_then_variadic_args_t@1@$$QEAV?$allocator@W4OperandType@Instruction@PLH@@@1@$$QEAPEAW4OperandType@Instruction@PLH@@22@Z
	??$?0V?$allocator@_W@std@@$$V@?$_Compressed_pair@V?$allocator@_W@std@@V?$_String_val@U?$_Simple_types@_W@std@@@2@$00@std@@QEAA@U_One_then_variadic_args_t@1@$$QEAV?$allocator@_W@1@@Z
	??$?0V?$basic_string@_WU?$char_traits@_W@std@@V?$allocator@_W@2@@std@@$0A@@path@filesystem@std@@QEAA@AEBV?$basic_string@_WU?$char_traits@_W@std@@V?$allocator@_W@2@@2@W4format@012@@Z
	??$?0V?$basic_string_view@_WU?$char_traits@_W@std@@@std@@$0A@@?$basic_string@_WU?$char_traits@_W@std@@V?$allocator@_W@2@@std@@QEAA@AEBV?$basic_string_view@_WU?$char_traits@_W@std@@@1@AEBV?$allocator@_W@1@@Z
	??$?0V?$tuple@$$QEA_K@std@@V?$tuple@$$V@1@$0A@$$Z$S@?$pair@$$CB_KV?$shared_ptr@VFBAllocator@PLH@@@std@@@std@@QEAA@AEAV?$tuple@$$QEA_K@1@AEAV?$tuple@$$V@1@U?$integer_sequence@_K$0A@@1@U?$integer_sequence@_K$S@1@@Z
	??$?0V?$tuple@AEBG@std@@V?$tuple@$$V@1@$0A@$$Z$S@?$pair@$$CBG_K@std@@QEAA@AEAV?$tuple@AEBG@1@AEAV?$tuple@$$V@1@U?$integer_sequence@_K$0A@@1@U?$integer_sequence@_K$S@1@@Z
	??$?0V?$vector@VInstruction@PLH@@V?$allocator@VInstruction@PLH@@@std@@@std@@$0A@@?$optional@V?$vector@VInstruction@PLH@@V?$allocator@VInstruction@PLH@@@std@@@std@@@std@@QEAA@$$QEAV?$vector@VInstruction@PLH@@V?$allocator@VInstruction@PLH@@@std@@@1@@Z
	??$?0V?$vector@VInstruction@PLH@@V?$allocator@VInstruction@PLH@@@std@@@std@@@?$_Non_trivial_copy@U?$_Optional_construct_base@V?$vector@VInstruction@PLH@@V?$allocator@VInstruction@PLH@@@std@@@std@@@std@@@std@@QEAA@Uin_place_t@1@$$QEAV?$vector@VInstruction@PLH@@V?$allocator@VInstruction@PLH@@@std@@@1@@Z
	??$?0V?$vector@VInstruction@PLH@@V?$allocator@VInstruction@PLH@@@std@@@std@@@?$_Non_trivial_copy_assign@U?$_Optional_construct_base@V?$vector@VInstruction@PLH@@V?$allocator@VInstruction@PLH@@@std@@@std@@@std@@V?$vector@VInstruction@PLH@@V?$allocator@VInstruction@PLH@@@std@@@2@@std@@QEAA@Uin_place_t@1@$$QEAV?$vector@VInstruction@PLH@@V?$allocator@VInstruction@PLH@@@std@@@1@@Z
	??$?0V?$vector@VInstruction@PLH@@V?$allocator@VInstruction@PLH@@@std@@@std@@@?$_Non_trivial_move@U?$_Optional_construct_base@V?$vector@VInstruction@PLH@@V?$allocator@VInstruction@PLH@@@std@@@std@@@std@@V?$vector@VInstruction@PLH@@V?$allocator@VInstruction@PLH@@@std@@@2@@std@@QEAA@Uin_place_t@1@$$QEAV?$vector@VInstruction@PLH@@V?$allocator@VInstruction@PLH@@@std@@@1@@Z
	??$?0V?$vector@VInstruction@PLH@@V?$allocator@VInstruction@PLH@@@std@@@std@@@?$_Non_trivial_move_assign@U?$_Optional_construct_base@V?$vector@VInstruction@PLH@@V?$allocator@VInstruction@PLH@@@std@@@std@@@std@@V?$vector@VInstruction@PLH@@V?$allocator@VInstruction@PLH@@@std@@@2@@std@@QEAA@Uin_place_t@1@$$QEAV?$vector@VInstruction@PLH@@V?$allocator@VInstruction@PLH@@@std@@@1@@Z
	??$?0V?$vector@VInstruction@PLH@@V?$allocator@VInstruction@PLH@@@std@@@std@@@?$_Optional_construct_base@V?$vector@VInstruction@PLH@@V?$allocator@VInstruction@PLH@@@std@@@std@@@std@@QEAA@Uin_place_t@1@$$QEAV?$vector@VInstruction@PLH@@V?$allocator@VInstruction@PLH@@@std@@@1@@Z
	??$?0V?$vector@VInstruction@PLH@@V?$allocator@VInstruction@PLH@@@std@@@std@@@?$_Optional_destruct_base@V?$vector@VInstruction@PLH@@V?$allocator@VInstruction@PLH@@@std@@@std@@$0A@@std@@QEAA@Uin_place_t@1@$$QEAV?$vector@VInstruction@PLH@@V?$allocator@VInstruction@PLH@@@std@@@1@@Z
	??$?0W4ZydisRegisterClass_@@W4ZydisRegister_@@$0A@@?$pair@$$CBW4ZydisRegisterClass_@@W4ZydisRegister_@@@std@@QEAA@$$QEAW4ZydisRegisterClass_@@$$QEAW4ZydisRegister_@@@Z
	??$?0W4ZydisRegister_@@W40@$0A@@?$pair@$$CBW4ZydisRegister_@@W41@@std@@QEAA@$$QEAW4ZydisRegister_@@0@Z
	??$?0_JX@Imm@_abi_1_10@asmjit@@QEAA@AEB_JI@Z
	??$?0_K$$V$0A@@?$tuple@$$QEA_K@std@@QEAA@$$QEA_K@Z
	??$?0_K$0A@@?$optional@_K@std@@QEAA@$$QEA_K@Z
	??$?0_K@?$_Optional_construct_base@_K@std@@QEAA@Uin_place_t@1@$$QEA_K@Z
	??$?0_K@?$_Optional_destruct_base@_K$00@std@@QEAA@Uin_place_t@1@$$QEA_K@Z
	??$?0_K@?$_Tuple_val@$$QEA_K@std@@QEAA@$$QEA_K@Z
	??$?0_KX@Imm@_abi_1_10@asmjit@@QEAA@AEB_KI@Z
	??$?6DU?$char_traits@D@std@@@std@@YAAEAV?$basic_ostream@DU?$char_traits@D@std@@@0@AEAV10@AEBU?$_Fillobj@D@0@@Z
	??$?6DU?$char_traits@D@std@@@std@@YAAEAV?$basic_ostream@DU?$char_traits@D@std@@@0@AEAV10@AEBU?$_Smanip@_J@0@@Z
	??$?6DU?$char_traits@D@std@@V?$allocator@D@1@@std@@YAAEAV?$basic_ostream@DU?$char_traits@D@std@@@0@AEAV10@AEBV?$basic_string@DU?$char_traits@D@std@@V?$allocator@D@2@@0@@Z
	??$?6U?$char_traits@D@std@@@std@@YAAEAV?$basic_ostream@DU?$char_traits@D@std@@@0@AEAV10@PEBD@Z
	??$?8DU?$char_traits@D@std@@V?$allocator@D@1@@std@@YA_NAEBV?$basic_string@DU?$char_traits@D@std@@V?$allocator@D@2@@0@QEBD@Z
	??$?8VFBAllocator@PLH@@V01@@std@@YA_NAEBV?$shared_ptr@VFBAllocator@PLH@@@0@0@Z
	??$?9$$A6A_NPEAU_EXCEPTION_POINTERS@@PEAK@Z@std@@YA_NAEBV?$function@$$A6A_NPEAU_EXCEPTION_POINTERS@@PEAK@Z@0@$$T@Z
	??$?AW4RegGroup@_abi_1_10@asmjit@@@?$Array@I$03@Support@_abi_1_10@asmjit@@QEAAAEAIAEBW4RegGroup@23@@Z
	??$?CVFBAllocator@PLH@@$0A@@?$shared_ptr@VFBAllocator@PLH@@@std@@QEBAPEAVFBAllocator@PLH@@XZ
	??$?CVLogger@PLH@@$0A@@?$shared_ptr@VLogger@PLH@@@std@@QEBAPEAVLogger@PLH@@XZ
	??$?HDU?$char_traits@D@std@@V?$allocator@D@1@@std@@YA?AV?$basic_string@DU?$char_traits@D@std@@V?$allocator@D@2@@0@$$QEAV10@AEBV10@@Z
	??$?HDU?$char_traits@D@std@@V?$allocator@D@1@@std@@YA?AV?$basic_string@DU?$char_traits@D@std@@V?$allocator@D@2@@0@$$QEAV10@QEBD@Z
	??$?HDU?$char_traits@D@std@@V?$allocator@D@1@@std@@YA?AV?$basic_string@DU?$char_traits@D@std@@V?$allocator@D@2@@0@AEBV10@QEBD@Z
	??$?HDU?$char_traits@D@std@@V?$allocator@D@1@@std@@YA?AV?$basic_string@DU?$char_traits@D@std@@V?$allocator@D@2@@0@QEBD$$QEAV10@@Z
	??$?HDU?$char_traits@D@std@@V?$allocator@D@1@@std@@YA?AV?$basic_string@DU?$char_traits@D@std@@V?$allocator@D@2@@0@QEBDAEBV10@@Z
	??$?MDU?$char_traits@D@std@@V?$allocator@D@1@@std@@YA_NAEBV?$basic_string@DU?$char_traits@D@std@@V?$allocator@D@2@@0@0@Z
	??$?RUAVehHookImpEntry@PLH@@@?$_Uhash_compare@UAVehHookImpEntry@PLH@@U?$hash@UAVehHookImpEntry@PLH@@@std@@U?$equal_to@UAVehHookImpEntry@PLH@@@4@@std@@QEBA_KAEBUAVehHookImpEntry@PLH@@@Z
	??$?RUAVehHookImpEntry@PLH@@U01@@?$_Uhash_compare@UAVehHookImpEntry@PLH@@U?$hash@UAVehHookImpEntry@PLH@@@std@@U?$equal_to@UAVehHookImpEntry@PLH@@@4@@std@@QEBA_NAEBUAVehHookImpEntry@PLH@@0@Z
	??$?R_K$0A@@?$default_delete@$$BY0A@_K@std@@QEBAXPEA_K@Z
	??$?R_K@?$_Uhash_compare@_KU?$hash@_K@std@@U?$equal_to@_K@2@@std@@QEBA_KAEB_K@Z
	??$?R_K_K@?$_Uhash_compare@_KU?$hash@_K@std@@U?$equal_to@_K@2@@std@@QEBA_NAEB_K0@Z
	??$Invoke@AEAPEAU_EXCEPTION_POINTERS@@PEAK@?$EventDispatcher@$$A6A_NPEAU_EXCEPTION_POINTERS@@PEAK@Z@PLH@@QEAA_NAEAPEAU_EXCEPTION_POINTERS@@$$QEAPEAK@Z
	??$_Adl_verify_range@PEADPEAD@std@@YAXAEBQEAD0@Z
	??$_Adl_verify_range@PEAEPEAE@std@@YAXAEBQEAE0@Z
	??$_Adl_verify_range@PEAV?$_List_unchecked_const_iterator@V?$_List_val@U?$_List_simple_types@UAVehHookImpEntry@PLH@@@std@@@std@@U_Iterator_base0@2@@std@@PEAV12@@std@@YAXAEBQEAV?$_List_unchecked_const_iterator@V?$_List_val@U?$_List_simple_types@UAVehHookImpEntry@PLH@@@std@@@std@@U_Iterator_base0@2@@0@0@Z
	??$_Adl_verify_range@PEAV?$_List_unchecked_iterator@V?$_List_val@U?$_List_simple_types@U?$pair@$$CB_KV?$shared_ptr@VFBAllocator@PLH@@@std@@@std@@@std@@@std@@@std@@PEAV12@@std@@YAXAEBQEAV?$_List_unchecked_iterator@V?$_List_val@U?$_List_simple_types@U?$pair@$$CB_KV?$shared_ptr@VFBAllocator@PLH@@@std@@@std@@@std@@@std@@@0@0@Z
	??$_Adl_verify_range@PEAV?$_List_unchecked_iterator@V?$_List_val@U?$_List_simple_types@U?$pair@$$CB_KV?$vector@VInstruction@PLH@@V?$allocator@VInstruction@PLH@@@std@@@std@@@std@@@std@@@std@@@std@@PEAV12@@std@@YAXAEBQEAV?$_List_unchecked_iterator@V?$_List_val@U?$_List_simple_types@U?$pair@$$CB_KV?$vector@VInstruction@PLH@@V?$allocator@VInstruction@PLH@@@std@@@std@@@std@@@std@@@std@@@0@0@Z
	??$_Adl_verify_range@PEB_WPEB_W@std@@YAXAEBQEB_W0@Z
	??$_Adl_verify_range@V?$_Vector_const_iterator@V?$_Vector_val@U?$_Simple_types@V?$basic_string@DU?$char_traits@D@std@@V?$allocator@D@2@@std@@@std@@@std@@@std@@V12@@std@@YAXAEBV?$_Vector_const_iterator@V?$_Vector_val@U?$_Simple_types@V?$basic_string@DU?$char_traits@D@std@@V?$allocator@D@2@@std@@@std@@@std@@@0@0@Z
	??$_Adl_verify_range@V?$_Vector_const_iterator@V?$_Vector_val@U?$_Simple_types@VInstruction@PLH@@@std@@@std@@@std@@V12@@std@@YAXAEBV?$_Vector_const_iterator@V?$_Vector_val@U?$_Simple_types@VInstruction@PLH@@@std@@@std@@@0@0@Z
	??$_Adl_verify_range@V?$_Vector_iterator@V?$_Vector_val@U?$_Simple_types@V?$basic_string@DU?$char_traits@D@std@@V?$allocator@D@2@@std@@@std@@@std@@@std@@V12@@std@@YAXAEBV?$_Vector_iterator@V?$_Vector_val@U?$_Simple_types@V?$basic_string@DU?$char_traits@D@std@@V?$allocator@D@2@@std@@@std@@@std@@@0@0@Z
	??$_Adl_verify_range@V?$_Vector_iterator@V?$_Vector_val@U?$_Simple_types@V?$shared_ptr@VFBAllocator@PLH@@@std@@@std@@@std@@@std@@V12@@std@@YAXAEBV?$_Vector_iterator@V?$_Vector_val@U?$_Simple_types@V?$shared_ptr@VFBAllocator@PLH@@@std@@@std@@@std@@@0@0@Z
	??$_Adl_verify_range@V?$_Vector_iterator@V?$_Vector_val@U?$_Simple_types@VInstruction@PLH@@@std@@@std@@@std@@V12@@std@@YAXAEBV?$_Vector_iterator@V?$_Vector_val@U?$_Simple_types@VInstruction@PLH@@@std@@@std@@@0@0@Z
	??$_Allocate@$0BA@U_Default_allocate_traits@std@@@std@@YAPEAX_K@Z
	??$_Allocate_at_least_helper@V?$allocator@D@std@@@std@@YAPEADAEAV?$allocator@D@0@AEA_K@Z
	??$_Allocate_at_least_helper@V?$allocator@E@std@@@std@@YAPEAEAEAV?$allocator@E@0@AEA_K@Z
	??$_Allocate_at_least_helper@V?$allocator@UError@PLH@@@std@@@std@@YAPEAUError@PLH@@AEAV?$allocator@UError@PLH@@@0@AEA_K@Z
	??$_Allocate_at_least_helper@V?$allocator@V?$basic_string@DU?$char_traits@D@std@@V?$allocator@D@2@@std@@@std@@@std@@YAPEAV?$basic_string@DU?$char_traits@D@std@@V?$allocator@D@2@@0@AEAV?$allocator@V?$basic_string@DU?$char_traits@D@std@@V?$allocator@D@2@@std@@@0@AEA_K@Z
	??$_Allocate_at_least_helper@V?$allocator@V?$shared_ptr@VFBAllocator@PLH@@@std@@@std@@@std@@YAPEAV?$shared_ptr@VFBAllocator@PLH@@@0@AEAV?$allocator@V?$shared_ptr@VFBAllocator@PLH@@@std@@@0@AEA_K@Z
	??$_Allocate_at_least_helper@V?$allocator@VEffect@@@std@@@std@@YAPEAVEffect@@AEAV?$allocator@VEffect@@@0@AEA_K@Z
	??$_Allocate_at_least_helper@V?$allocator@VInstruction@PLH@@@std@@@std@@YAPEAVInstruction@PLH@@AEAV?$allocator@VInstruction@PLH@@@0@AEA_K@Z
	??$_Allocate_at_least_helper@V?$allocator@VReg@x86@_abi_1_10@asmjit@@@std@@@std@@YAPEAVReg@x86@_abi_1_10@asmjit@@AEAV?$allocator@VReg@x86@_abi_1_10@asmjit@@@0@AEA_K@Z
	??$_Allocate_at_least_helper@V?$allocator@W4OperandType@Instruction@PLH@@@std@@@std@@YAPEAW4OperandType@Instruction@PLH@@AEAV?$allocator@W4OperandType@Instruction@PLH@@@0@AEA_K@Z
	??$_Allocate_at_least_helper@V?$allocator@W4TypeId@_abi_1_10@asmjit@@@std@@@std@@YAPEAW4TypeId@_abi_1_10@asmjit@@AEAV?$allocator@W4TypeId@_abi_1_10@asmjit@@@0@AEA_K@Z
	??$_Allocate_at_least_helper@V?$allocator@_W@std@@@std@@YAPEA_WAEAV?$allocator@_W@0@AEA_K@Z
	??$_Allocate_for_capacity@$0A@@?$basic_string@DU?$char_traits@D@std@@V?$allocator@D@2@@std@@CAPEADAEAV?$allocator@D@1@AEA_K@Z
	??$_Allocate_for_capacity@$0A@@?$basic_string@_WU?$char_traits@_W@std@@V?$allocator@_W@2@@std@@CAPEA_WAEAV?$allocator@_W@1@AEA_K@Z
	??$_Allocate_manually_vector_aligned@U_Default_allocate_traits@std@@@std@@YAPEAX_K@Z
	??$_Assign_counted_range@PEAE@?$vector@EV?$allocator@E@std@@@std@@AEAAXPEAE_K@Z
	??$_Assign_counted_range@PEAVInstruction@PLH@@@?$vector@VInstruction@PLH@@V?$allocator@VInstruction@PLH@@@std@@@std@@AEAAXPEAVInstruction@PLH@@_K@Z
	??$_Assign_counted_range@PEAW4OperandType@Instruction@PLH@@@?$vector@W4OperandType@Instruction@PLH@@V?$allocator@W4OperandType@Instruction@PLH@@@std@@@std@@AEAAXPEAW4OperandType@Instruction@PLH@@_K@Z
	??$_Atomic_address_as@HU?$_Atomic_padded@J@std@@@std@@YAPEDHAEBU?$_Atomic_padded@J@0@@Z
	??$_Atomic_address_as@JU?$_Atomic_padded@J@std@@@std@@YAPECJAEAU?$_Atomic_padded@J@0@@Z
	??$_Buyheadnode@V?$allocator@U?$_Tree_node@U?$pair@$$CBG_K@std@@PEAX@std@@@std@@@?$_Tree_node@U?$pair@$$CBG_K@std@@PEAX@std@@SAPEAU01@AEAV?$allocator@U?$_Tree_node@U?$pair@$$CBG_K@std@@PEAX@std@@@1@@Z
	??$_Buyheadnode@V?$allocator@U?$_Tree_node@U?$pair@$$CBV?$basic_string@DU?$char_traits@D@std@@V?$allocator@D@2@@std@@V12@@std@@PEAX@std@@@std@@@?$_Tree_node@U?$pair@$$CBV?$basic_string@DU?$char_traits@D@std@@V?$allocator@D@2@@std@@V12@@std@@PEAX@std@@SAPEAU01@AEAV?$allocator@U?$_Tree_node@U?$pair@$$CBV?$basic_string@DU?$char_traits@D@std@@V?$allocator@D@2@@std@@V12@@std@@PEAX@std@@@1@@Z
	??$_Buyheadnode@V?$allocator@U?$_Tree_node@U?$pair@$$CBW4ZydisRegisterClass_@@W4ZydisRegister_@@@std@@PEAX@std@@@std@@@?$_Tree_node@U?$pair@$$CBW4ZydisRegisterClass_@@W4ZydisRegister_@@@std@@PEAX@std@@SAPEAU01@AEAV?$allocator@U?$_Tree_node@U?$pair@$$CBW4ZydisRegisterClass_@@W4ZydisRegister_@@@std@@PEAX@std@@@1@@Z
	??$_Buyheadnode@V?$allocator@U?$_Tree_node@U?$pair@$$CBW4ZydisRegister_@@W41@@std@@PEAX@std@@@std@@@?$_Tree_node@U?$pair@$$CBW4ZydisRegister_@@W41@@std@@PEAX@std@@SAPEAU01@AEAV?$allocator@U?$_Tree_node@U?$pair@$$CBW4ZydisRegister_@@W41@@std@@PEAX@std@@@1@@Z
	??$_Buyheadnode@V?$allocator@U?$_Tree_node@V?$basic_string@DU?$char_traits@D@std@@V?$allocator@D@2@@std@@PEAX@std@@@std@@@?$_Tree_node@V?$basic_string@DU?$char_traits@D@std@@V?$allocator@D@2@@std@@PEAX@std@@SAPEAU01@AEAV?$allocator@U?$_Tree_node@V?$basic_string@DU?$char_traits@D@std@@V?$allocator@D@2@@std@@PEAX@std@@@1@@Z
	??$_Buynode@AEAU?$pair@$$CBG_K@std@@@?$_Tree@V?$_Tmap_traits@G_KU?$less@G@std@@V?$allocator@U?$pair@$$CBG_K@std@@@2@$0A@@std@@@std@@IEAAPEAU?$_Tree_node@U?$pair@$$CBG_K@std@@PEAX@1@AEAU?$pair@$$CBG_K@1@@Z
	??$_Buynode@V?$allocator@U?$_Tree_node@U?$pair@$$CBG_K@std@@PEAX@std@@@std@@AEAU?$pair@$$CBG_K@2@@?$_Tree_node@U?$pair@$$CBG_K@std@@PEAX@std@@SAPEAU01@AEAV?$allocator@U?$_Tree_node@U?$pair@$$CBG_K@std@@PEAX@std@@@1@PEAU01@AEAU?$pair@$$CBG_K@1@@Z
	??$_Construct@$00PEAD@?$basic_string@DU?$char_traits@D@std@@V?$allocator@D@2@@std@@AEAAXQEAD_K@Z
	??$_Construct@$00PEBD@?$basic_string@DU?$char_traits@D@std@@V?$allocator@D@2@@std@@AEAAXQEBD_K@Z
	??$_Construct@$00PEB_W@?$basic_string@_WU?$char_traits@_W@std@@V?$allocator@_W@2@@std@@AEAAXQEB_W_K@Z
	??$_Construct@$01PEBD@?$basic_string@DU?$char_traits@D@std@@V?$allocator@D@2@@std@@AEAAXQEBD_K@Z
	??$_Construct@$01PEB_W@?$basic_string@_WU?$char_traits@_W@std@@V?$allocator@_W@2@@std@@AEAAXQEB_W_K@Z
	??$_Construct_in_place@PEADAEAPEAD@std@@YAXAEAPEAD0@Z
	??$_Construct_in_place@PEADAEBQEAD@std@@YAXAEAPEADAEBQEAD@Z
	??$_Construct_in_place@PEAU?$_List_node@U?$pair@$$CB_KV?$shared_ptr@VFBAllocator@PLH@@@std@@@std@@PEAX@std@@AEAPEAU12@@std@@YAXAEAPEAU?$_List_node@U?$pair@$$CB_KV?$shared_ptr@VFBAllocator@PLH@@@std@@@std@@PEAX@0@0@Z
	??$_Construct_in_place@PEAU?$_List_node@U?$pair@$$CB_KV?$shared_ptr@VFBAllocator@PLH@@@std@@@std@@PEAX@std@@AEBQEAU12@@std@@YAXAEAPEAU?$_List_node@U?$pair@$$CB_KV?$shared_ptr@VFBAllocator@PLH@@@std@@@std@@PEAX@0@AEBQEAU10@@Z
	??$_Construct_in_place@PEAU?$_List_node@U?$pair@$$CB_KV?$vector@VInstruction@PLH@@V?$allocator@VInstruction@PLH@@@std@@@std@@@std@@PEAX@std@@AEAPEAU12@@std@@YAXAEAPEAU?$_List_node@U?$pair@$$CB_KV?$vector@VInstruction@PLH@@V?$allocator@VInstruction@PLH@@@std@@@std@@@std@@PEAX@0@0@Z
	??$_Construct_in_place@PEAU?$_List_node@U?$pair@$$CB_KV?$vector@VInstruction@PLH@@V?$allocator@VInstruction@PLH@@@std@@@std@@@std@@PEAX@std@@AEBQEAU12@@std@@YAXAEAPEAU?$_List_node@U?$pair@$$CB_KV?$vector@VInstruction@PLH@@V?$allocator@VInstruction@PLH@@@std@@@std@@@std@@PEAX@0@AEBQEAU10@@Z
	??$_Construct_in_place@PEAU?$_List_node@UAVehHookImpEntry@PLH@@PEAX@std@@AEAPEAU12@@std@@YAXAEAPEAU?$_List_node@UAVehHookImpEntry@PLH@@PEAX@0@0@Z
	??$_Construct_in_place@PEAU?$_List_node@UAVehHookImpEntry@PLH@@PEAX@std@@AEBQEAU12@@std@@YAXAEAPEAU?$_List_node@UAVehHookImpEntry@PLH@@PEAX@0@AEBQEAU10@@Z
	??$_Construct_in_place@PEAU?$_Tree_node@U?$pair@$$CBG_K@std@@PEAX@std@@AEAPEAU12@@std@@YAXAEAPEAU?$_Tree_node@U?$pair@$$CBG_K@std@@PEAX@0@0@Z
	??$_Construct_in_place@PEAU?$_Tree_node@U?$pair@$$CBG_K@std@@PEAX@std@@AEBQEAU12@@std@@YAXAEAPEAU?$_Tree_node@U?$pair@$$CBG_K@std@@PEAX@0@AEBQEAU10@@Z
	??$_Construct_in_place@PEAU?$_Tree_node@U?$pair@$$CBV?$basic_string@DU?$char_traits@D@std@@V?$allocator@D@2@@std@@V12@@std@@PEAX@std@@AEAPEAU12@@std@@YAXAEAPEAU?$_Tree_node@U?$pair@$$CBV?$basic_string@DU?$char_traits@D@std@@V?$allocator@D@2@@std@@V12@@std@@PEAX@0@0@Z
	??$_Construct_in_place@PEAU?$_Tree_node@U?$pair@$$CBV?$basic_string@DU?$char_traits@D@std@@V?$allocator@D@2@@std@@V12@@std@@PEAX@std@@AEBQEAU12@@std@@YAXAEAPEAU?$_Tree_node@U?$pair@$$CBV?$basic_string@DU?$char_traits@D@std@@V?$allocator@D@2@@std@@V12@@std@@PEAX@0@AEBQEAU10@@Z
	??$_Construct_in_place@PEAU?$_Tree_node@U?$pair@$$CBW4ZydisRegisterClass_@@W4ZydisRegister_@@@std@@PEAX@std@@AEAPEAU12@@std@@YAXAEAPEAU?$_Tree_node@U?$pair@$$CBW4ZydisRegisterClass_@@W4ZydisRegister_@@@std@@PEAX@0@0@Z
	??$_Construct_in_place@PEAU?$_Tree_node@U?$pair@$$CBW4ZydisRegisterClass_@@W4ZydisRegister_@@@std@@PEAX@std@@AEBQEAU12@@std@@YAXAEAPEAU?$_Tree_node@U?$pair@$$CBW4ZydisRegisterClass_@@W4ZydisRegister_@@@std@@PEAX@0@AEBQEAU10@@Z
	??$_Construct_in_place@PEAU?$_Tree_node@U?$pair@$$CBW4ZydisRegister_@@W41@@std@@PEAX@std@@AEAPEAU12@@std@@YAXAEAPEAU?$_Tree_node@U?$pair@$$CBW4ZydisRegister_@@W41@@std@@PEAX@0@0@Z
	??$_Construct_in_place@PEAU?$_Tree_node@U?$pair@$$CBW4ZydisRegister_@@W41@@std@@PEAX@std@@AEBQEAU12@@std@@YAXAEAPEAU?$_Tree_node@U?$pair@$$CBW4ZydisRegister_@@W41@@std@@PEAX@0@AEBQEAU10@@Z
	??$_Construct_in_place@PEAU?$_Tree_node@V?$basic_string@DU?$char_traits@D@std@@V?$allocator@D@2@@std@@PEAX@std@@AEAPEAU12@@std@@YAXAEAPEAU?$_Tree_node@V?$basic_string@DU?$char_traits@D@std@@V?$allocator@D@2@@std@@PEAX@0@0@Z
	??$_Construct_in_place@PEAU?$_Tree_node@V?$basic_string@DU?$char_traits@D@std@@V?$allocator@D@2@@std@@PEAX@std@@AEBQEAU12@@std@@YAXAEAPEAU?$_Tree_node@V?$basic_string@DU?$char_traits@D@std@@V?$allocator@D@2@@std@@PEAX@0@AEBQEAU10@@Z
	??$_Construct_in_place@PEA_WAEAPEA_W@std@@YAXAEAPEA_W0@Z
	??$_Construct_in_place@PEA_WAEBQEA_W@std@@YAXAEAPEA_WAEBQEA_W@Z
	??$_Construct_in_place@V?$_List_unchecked_const_iterator@V?$_List_val@U?$_List_simple_types@UAVehHookImpEntry@PLH@@@std@@@std@@U_Iterator_base0@2@@std@@AEBV12@@std@@YAXAEAV?$_List_unchecked_const_iterator@V?$_List_val@U?$_List_simple_types@UAVehHookImpEntry@PLH@@@std@@@std@@U_Iterator_base0@2@@0@AEBV10@@Z
	??$_Construct_in_place@V?$_List_unchecked_iterator@V?$_List_val@U?$_List_simple_types@U?$pair@$$CB_KV?$shared_ptr@VFBAllocator@PLH@@@std@@@std@@@std@@@std@@@std@@AEBV12@@std@@YAXAEAV?$_List_unchecked_iterator@V?$_List_val@U?$_List_simple_types@U?$pair@$$CB_KV?$shared_ptr@VFBAllocator@PLH@@@std@@@std@@@std@@@std@@@0@AEBV10@@Z
	??$_Construct_in_place@V?$_List_unchecked_iterator@V?$_List_val@U?$_List_simple_types@U?$pair@$$CB_KV?$vector@VInstruction@PLH@@V?$allocator@VInstruction@PLH@@@std@@@std@@@std@@@std@@@std@@@std@@AEBV12@@std@@YAXAEAV?$_List_unchecked_iterator@V?$_List_val@U?$_List_simple_types@U?$pair@$$CB_KV?$vector@VInstruction@PLH@@V?$allocator@VInstruction@PLH@@@std@@@std@@@std@@@std@@@std@@@0@AEBV10@@Z
	??$_Construct_in_place@V?$basic_string@DU?$char_traits@D@std@@V?$allocator@D@2@@std@@V12@@std@@YAXAEAV?$basic_string@DU?$char_traits@D@std@@V?$allocator@D@2@@0@$$QEAV10@@Z
	??$_Construct_in_place@V?$shared_ptr@VFBAllocator@PLH@@@std@@AEBV12@@std@@YAXAEAV?$shared_ptr@VFBAllocator@PLH@@@0@AEBV10@@Z
	??$_Construct_in_place@VEffect@@V1@@std@@YAXAEAVEffect@@$$QEAV1@@Z
	??$_Construct_in_place@VFBAllocator@PLH@@AEA_KAEA_KAEAEAEAE@std@@YAXAEAVFBAllocator@PLH@@AEA_K1AEAE2@Z
	??$_Construct_in_place@VInstruction@PLH@@V12@@std@@YAXAEAVInstruction@PLH@@$$QEAV12@@Z
	??$_Construct_in_place@VReg@x86@_abi_1_10@asmjit@@AEBV1234@@std@@YAXAEAVReg@x86@_abi_1_10@asmjit@@AEBV1234@@Z
	??$_Construct_in_place@W4OperandType@Instruction@PLH@@AEAW4123@@std@@YAXAEAW4OperandType@Instruction@PLH@@0@Z
	??$_Construct_in_place@W4TypeId@_abi_1_10@asmjit@@W4123@@std@@YAXAEAW4TypeId@_abi_1_10@asmjit@@$$QEAW4123@@Z
	??$_Construct_n@$$V@?$vector@EV?$allocator@E@std@@@std@@AEAAX_K@Z
	??$_Construct_n@AEBQEAEAEBQEAE@?$vector@EV?$allocator@E@std@@@std@@AEAAX_KAEBQEAE1@Z
	??$_Construct_n@AEBQEAVInstruction@PLH@@AEBQEAV12@@?$vector@VInstruction@PLH@@V?$allocator@VInstruction@PLH@@@std@@@std@@AEAAX_KAEBQEAVInstruction@PLH@@1@Z
	??$_Construct_n@AEBQEAW4OperandType@Instruction@PLH@@AEBQEAW4123@@?$vector@W4OperandType@Instruction@PLH@@V?$allocator@W4OperandType@Instruction@PLH@@@std@@@std@@AEAAX_KAEBQEAW4OperandType@Instruction@PLH@@1@Z
	??$_Construct_n@PEAEPEAE@?$vector@EV?$allocator@E@std@@@std@@AEAAX_K$$QEAPEAE1@Z
	??$_Construct_n@PEBEPEBE@?$vector@EV?$allocator@E@std@@@std@@AEAAX_K$$QEAPEBE1@Z
	??$_Construct_n@PEBVInstruction@PLH@@PEBV12@@?$vector@VInstruction@PLH@@V?$allocator@VInstruction@PLH@@@std@@@std@@AEAAX_K$$QEAPEBVInstruction@PLH@@1@Z
	??$_Convert_Source_to_wide@V?$basic_string@_WU?$char_traits@_W@std@@V?$allocator@_W@2@@std@@U_Normal_conversion@filesystem@2@@filesystem@std@@YA?AV?$basic_string@_WU?$char_traits@_W@std@@V?$allocator@_W@2@@1@AEBV21@U_Normal_conversion@01@@Z
	??$_Convert_size@_K_K@std@@YA_K_K@Z
	??$_Convert_stringoid_to_wide@U_Normal_conversion@filesystem@std@@@filesystem@std@@YA?AV?$basic_string@_WU?$char_traits@_W@std@@V?$allocator@_W@2@@1@V?$basic_string_view@_WU?$char_traits@_W@std@@@1@U_Normal_conversion@01@@Z
	??$_Copy@$0A@@?$_Tree@V?$_Tmap_traits@G_KU?$less@G@std@@V?$allocator@U?$pair@$$CBG_K@std@@@2@$0A@@std@@@std@@IEAAXAEBV01@@Z
	??$_Copy_construct_from@VFBAllocator@PLH@@@?$_Ptr_base@VFBAllocator@PLH@@@std@@IEAAXAEBV?$shared_ptr@VFBAllocator@PLH@@@1@@Z
	??$_Copy_construct_from@VLogger@PLH@@@?$_Ptr_base@VLogger@PLH@@@std@@IEAAXAEBV?$shared_ptr@VLogger@PLH@@@1@@Z
	??$_Copy_memmove@PEAEPEAE@std@@YAPEAEPEAE00@Z
	??$_Copy_memmove@PEAVEffect@@PEAV1@@std@@YAPEAVEffect@@PEAV1@00@Z
	??$_Copy_memmove@PEAW4OperandType@Instruction@PLH@@PEAW4123@@std@@YAPEAW4OperandType@Instruction@PLH@@PEAW4123@00@Z
	??$_Copy_memmove@PEAW4TypeId@_abi_1_10@asmjit@@PEAW4123@@std@@YAPEAW4TypeId@_abi_1_10@asmjit@@PEAW4123@00@Z
	??$_Copy_memmove@PEBEPEAE@std@@YAPEAEPEBE0PEAE@Z
	??$_Copy_memmove_n@PEAEPEAE@std@@YAPEAEPEAE_K0@Z
	??$_Copy_memmove_n@PEAW4OperandType@Instruction@PLH@@PEAW4123@@std@@YAPEAW4OperandType@Instruction@PLH@@PEAW4123@_K0@Z
	??$_Copy_n_unchecked4@PEAE_KPEAE@std@@YAPEAEPEAE_K0@Z
	??$_Copy_n_unchecked4@PEAVInstruction@PLH@@_KPEAV12@@std@@YAPEAVInstruction@PLH@@PEAV12@_K0@Z
	??$_Copy_n_unchecked4@PEAW4OperandType@Instruction@PLH@@_KPEAW4123@@std@@YAPEAW4OperandType@Instruction@PLH@@PEAW4123@_K0@Z
	??$_Copy_nodes@$0A@@?$_Tree@V?$_Tmap_traits@G_KU?$less@G@std@@V?$allocator@U?$pair@$$CBG_K@std@@@2@$0A@@std@@@std@@IEAAPEAU?$_Tree_node@U?$pair@$$CBG_K@std@@PEAX@1@PEAU21@0@Z
	??$_Copy_or_move@$0A@U?$pair@$$CBG_K@std@@@?$_Tree@V?$_Tmap_traits@G_KU?$less@G@std@@V?$allocator@U?$pair@$$CBG_K@std@@@2@$0A@@std@@@std@@IEAAPEAU?$_Tree_node@U?$pair@$$CBG_K@std@@PEAX@1@AEAU?$pair@$$CBG_K@1@@Z
	??$_Copy_unchecked@PEAV?$basic_string@DU?$char_traits@D@std@@V?$allocator@D@2@@std@@PEAV12@V?$ostream_iterator@V?$basic_string@DU?$char_traits@D@std@@V?$allocator@D@2@@std@@DU?$char_traits@D@2@@2@@std@@YA?AV?$ostream_iterator@V?$basic_string@DU?$char_traits@D@std@@V?$allocator@D@2@@std@@DU?$char_traits@D@2@@0@PEAV?$basic_string@DU?$char_traits@D@std@@V?$allocator@D@2@@0@0V10@@Z
	??$_Deallocate@$07@std@@YAXPEAX_K@Z
	??$_Deallocate@$0BA@@std@@YAXPEAX_K@Z
	??$_Destroy_in_place@PEAD@std@@YAXAEAPEAD@Z
	??$_Destroy_in_place@PEAU?$_List_node@U?$pair@$$CB_KV?$shared_ptr@VFBAllocator@PLH@@@std@@@std@@PEAX@std@@@std@@YAXAEAPEAU?$_List_node@U?$pair@$$CB_KV?$shared_ptr@VFBAllocator@PLH@@@std@@@std@@PEAX@0@@Z
	??$_Destroy_in_place@PEAU?$_List_node@U?$pair@$$CB_KV?$vector@VInstruction@PLH@@V?$allocator@VInstruction@PLH@@@std@@@std@@@std@@PEAX@std@@@std@@YAXAEAPEAU?$_List_node@U?$pair@$$CB_KV?$vector@VInstruction@PLH@@V?$allocator@VInstruction@PLH@@@std@@@std@@@std@@PEAX@0@@Z
	??$_Destroy_in_place@PEAU?$_List_node@UAVehHookImpEntry@PLH@@PEAX@std@@@std@@YAXAEAPEAU?$_List_node@UAVehHookImpEntry@PLH@@PEAX@0@@Z
	??$_Destroy_in_place@PEAU?$_Tree_node@U?$pair@$$CBG_K@std@@PEAX@std@@@std@@YAXAEAPEAU?$_Tree_node@U?$pair@$$CBG_K@std@@PEAX@0@@Z
	??$_Destroy_in_place@PEAU?$_Tree_node@U?$pair@$$CBV?$basic_string@DU?$char_traits@D@std@@V?$allocator@D@2@@std@@V12@@std@@PEAX@std@@@std@@YAXAEAPEAU?$_Tree_node@U?$pair@$$CBV?$basic_string@DU?$char_traits@D@std@@V?$allocator@D@2@@std@@V12@@std@@PEAX@0@@Z
	??$_Destroy_in_place@PEAU?$_Tree_node@U?$pair@$$CBW4ZydisRegisterClass_@@W4ZydisRegister_@@@std@@PEAX@std@@@std@@YAXAEAPEAU?$_Tree_node@U?$pair@$$CBW4ZydisRegisterClass_@@W4ZydisRegister_@@@std@@PEAX@0@@Z
	??$_Destroy_in_place@PEAU?$_Tree_node@U?$pair@$$CBW4ZydisRegister_@@W41@@std@@PEAX@std@@@std@@YAXAEAPEAU?$_Tree_node@U?$pair@$$CBW4ZydisRegister_@@W41@@std@@PEAX@0@@Z
	??$_Destroy_in_place@PEAU?$_Tree_node@V?$basic_string@DU?$char_traits@D@std@@V?$allocator@D@2@@std@@PEAX@std@@@std@@YAXAEAPEAU?$_Tree_node@V?$basic_string@DU?$char_traits@D@std@@V?$allocator@D@2@@std@@PEAX@0@@Z
	??$_Destroy_in_place@PEA_W@std@@YAXAEAPEA_W@Z
	??$_Destroy_in_place@VFBAllocator@PLH@@@std@@YAXAEAVFBAllocator@PLH@@@Z
	??$_Destroy_range@PEAV?$_List_unchecked_const_iterator@V?$_List_val@U?$_List_simple_types@UAVehHookImpEntry@PLH@@@std@@@std@@U_Iterator_base0@2@@std@@PEAV12@@std@@YAXPEAV?$_List_unchecked_const_iterator@V?$_List_val@U?$_List_simple_types@UAVehHookImpEntry@PLH@@@std@@@std@@U_Iterator_base0@2@@0@QEAV10@@Z
	??$_Destroy_range@PEAV?$_List_unchecked_iterator@V?$_List_val@U?$_List_simple_types@U?$pair@$$CB_KV?$shared_ptr@VFBAllocator@PLH@@@std@@@std@@@std@@@std@@@std@@PEAV12@@std@@YAXPEAV?$_List_unchecked_iterator@V?$_List_val@U?$_List_simple_types@U?$pair@$$CB_KV?$shared_ptr@VFBAllocator@PLH@@@std@@@std@@@std@@@std@@@0@QEAV10@@Z
	??$_Destroy_range@PEAV?$_List_unchecked_iterator@V?$_List_val@U?$_List_simple_types@U?$pair@$$CB_KV?$vector@VInstruction@PLH@@V?$allocator@VInstruction@PLH@@@std@@@std@@@std@@@std@@@std@@@std@@PEAV12@@std@@YAXPEAV?$_List_unchecked_iterator@V?$_List_val@U?$_List_simple_types@U?$pair@$$CB_KV?$vector@VInstruction@PLH@@V?$allocator@VInstruction@PLH@@@std@@@std@@@std@@@std@@@std@@@0@QEAV10@@Z
	??$_Destroy_range@V?$allocator@E@std@@@std@@YAXPEAEQEAEAEAV?$allocator@E@0@@Z
	??$_Destroy_range@V?$allocator@UError@PLH@@@std@@@std@@YAXPEAUError@PLH@@QEAU12@AEAV?$allocator@UError@PLH@@@0@@Z
	??$_Destroy_range@V?$allocator@V?$basic_string@DU?$char_traits@D@std@@V?$allocator@D@2@@std@@@std@@@std@@YAXPEAV?$basic_string@DU?$char_traits@D@std@@V?$allocator@D@2@@0@QEAV10@AEAV?$allocator@V?$basic_string@DU?$char_traits@D@std@@V?$allocator@D@2@@std@@@0@@Z
	??$_Destroy_range@V?$allocator@V?$shared_ptr@VFBAllocator@PLH@@@std@@@std@@@std@@YAXPEAV?$shared_ptr@VFBAllocator@PLH@@@0@QEAV10@AEAV?$allocator@V?$shared_ptr@VFBAllocator@PLH@@@std@@@0@@Z
	??$_Destroy_range@V?$allocator@VEffect@@@std@@@std@@YAXPEAVEffect@@QEAV1@AEAV?$allocator@VEffect@@@0@@Z
	??$_Destroy_range@V?$allocator@VInstruction@PLH@@@std@@@std@@YAXPEAVInstruction@PLH@@QEAV12@AEAV?$allocator@VInstruction@PLH@@@0@@Z
	??$_Destroy_range@V?$allocator@VReg@x86@_abi_1_10@asmjit@@@std@@@std@@YAXPEAVReg@x86@_abi_1_10@asmjit@@QEAV1234@AEAV?$allocator@VReg@x86@_abi_1_10@asmjit@@@0@@Z
	??$_Destroy_range@V?$allocator@W4OperandType@Instruction@PLH@@@std@@@std@@YAXPEAW4OperandType@Instruction@PLH@@QEAW4123@AEAV?$allocator@W4OperandType@Instruction@PLH@@@0@@Z
	??$_Destroy_range@V?$allocator@W4TypeId@_abi_1_10@asmjit@@@std@@@std@@YAXPEAW4TypeId@_abi_1_10@asmjit@@QEAW4123@AEAV?$allocator@W4TypeId@_abi_1_10@asmjit@@@0@@Z
	??$_Emplace_back@$$V@?$_Uninitialized_backout_al@V?$allocator@E@std@@@std@@QEAAXXZ
	??$_Emplace_back@AEAE@?$_Uninitialized_backout_al@V?$allocator@E@std@@@std@@QEAAXAEAE@Z
	??$_Emplace_back@AEAVInstruction@PLH@@@?$_Uninitialized_backout_al@V?$allocator@VInstruction@PLH@@@std@@@std@@QEAAXAEAVInstruction@PLH@@@Z
	??$_Emplace_back@AEAW4OperandType@Instruction@PLH@@@?$_Uninitialized_backout_al@V?$allocator@W4OperandType@Instruction@PLH@@@std@@@std@@QEAAXAEAW4OperandType@Instruction@PLH@@@Z
	??$_Emplace_back@AEBE@?$_Uninitialized_backout_al@V?$allocator@E@std@@@std@@QEAAXAEBE@Z
	??$_Emplace_back@AEBV?$_List_unchecked_const_iterator@V?$_List_val@U?$_List_simple_types@UAVehHookImpEntry@PLH@@@std@@@std@@U_Iterator_base0@2@@std@@@?$_Uninitialized_backout@PEAV?$_List_unchecked_const_iterator@V?$_List_val@U?$_List_simple_types@UAVehHookImpEntry@PLH@@@std@@@std@@U_Iterator_base0@2@@std@@@std@@QEAAXAEBV?$_List_unchecked_const_iterator@V?$_List_val@U?$_List_simple_types@UAVehHookImpEntry@PLH@@@std@@@std@@U_Iterator_base0@2@@1@@Z
	??$_Emplace_back@AEBV?$_List_unchecked_iterator@V?$_List_val@U?$_List_simple_types@U?$pair@$$CB_KV?$shared_ptr@VFBAllocator@PLH@@@std@@@std@@@std@@@std@@@std@@@?$_Uninitialized_backout@PEAV?$_List_unchecked_iterator@V?$_List_val@U?$_List_simple_types@U?$pair@$$CB_KV?$shared_ptr@VFBAllocator@PLH@@@std@@@std@@@std@@@std@@@std@@@std@@QEAAXAEBV?$_List_unchecked_iterator@V?$_List_val@U?$_List_simple_types@U?$pair@$$CB_KV?$shared_ptr@VFBAllocator@PLH@@@std@@@std@@@std@@@std@@@1@@Z
	??$_Emplace_back@AEBV?$_List_unchecked_iterator@V?$_List_val@U?$_List_simple_types@U?$pair@$$CB_KV?$vector@VInstruction@PLH@@V?$allocator@VInstruction@PLH@@@std@@@std@@@std@@@std@@@std@@@std@@@?$_Uninitialized_backout@PEAV?$_List_unchecked_iterator@V?$_List_val@U?$_List_simple_types@U?$pair@$$CB_KV?$vector@VInstruction@PLH@@V?$allocator@VInstruction@PLH@@@std@@@std@@@std@@@std@@@std@@@std@@@std@@QEAAXAEBV?$_List_unchecked_iterator@V?$_List_val@U?$_List_simple_types@U?$pair@$$CB_KV?$vector@VInstruction@PLH@@V?$allocator@VInstruction@PLH@@@std@@@std@@@std@@@std@@@std@@@1@@Z
	??$_Emplace_back@AEBV?$basic_string@DU?$char_traits@D@std@@V?$allocator@D@2@@std@@@?$_Uninitialized_backout_al@V?$allocator@V?$basic_string@DU?$char_traits@D@std@@V?$allocator@D@2@@std@@@std@@@std@@QEAAXAEBV?$basic_string@DU?$char_traits@D@std@@V?$allocator@D@2@@1@@Z
	??$_Emplace_back@AEBVInstruction@PLH@@@?$_Uninitialized_backout_al@V?$allocator@VInstruction@PLH@@@std@@@std@@QEAAXAEBVInstruction@PLH@@@Z
	??$_Emplace_back@E@?$_Uninitialized_backout_al@V?$allocator@E@std@@@std@@QEAAX$$QEAE@Z
	??$_Emplace_back@UError@PLH@@@?$_Uninitialized_backout_al@V?$allocator@UError@PLH@@@std@@@std@@QEAAX$$QEAUError@PLH@@@Z
	??$_Emplace_back@V?$basic_string@DU?$char_traits@D@std@@V?$allocator@D@2@@std@@@?$_Uninitialized_backout_al@V?$allocator@V?$basic_string@DU?$char_traits@D@std@@V?$allocator@D@2@@std@@@std@@@std@@QEAAX$$QEAV?$basic_string@DU?$char_traits@D@std@@V?$allocator@D@2@@1@@Z
	??$_Emplace_back@V?$shared_ptr@VFBAllocator@PLH@@@std@@@?$_Uninitialized_backout_al@V?$allocator@V?$shared_ptr@VFBAllocator@PLH@@@std@@@std@@@std@@QEAAX$$QEAV?$shared_ptr@VFBAllocator@PLH@@@1@@Z
	??$_Emplace_back@VEffect@@@?$_Uninitialized_backout_al@V?$allocator@VEffect@@@std@@@std@@QEAAX$$QEAVEffect@@@Z
	??$_Emplace_back@VInstruction@PLH@@@?$_Uninitialized_backout_al@V?$allocator@VInstruction@PLH@@@std@@@std@@QEAAX$$QEAVInstruction@PLH@@@Z
	??$_Emplace_back@VReg@x86@_abi_1_10@asmjit@@@?$_Uninitialized_backout_al@V?$allocator@VReg@x86@_abi_1_10@asmjit@@@std@@@std@@QEAAX$$QEAVReg@x86@_abi_1_10@asmjit@@@Z
	??$_Emplace_back@W4OperandType@Instruction@PLH@@@?$_Uninitialized_backout_al@V?$allocator@W4OperandType@Instruction@PLH@@@std@@@std@@QEAAX$$QEAW4OperandType@Instruction@PLH@@@Z
	??$_Emplace_back@W4TypeId@_abi_1_10@asmjit@@@?$_Uninitialized_backout_al@V?$allocator@W4TypeId@_abi_1_10@asmjit@@@std@@@std@@QEAAX$$QEAW4TypeId@_abi_1_10@asmjit@@@Z
	??$_Emplace_back_with_unused_capacity@AEAV?$basic_string@DU?$char_traits@D@std@@V?$allocator@D@2@@std@@@?$vector@V?$basic_string@DU?$char_traits@D@std@@V?$allocator@D@2@@std@@V?$allocator@V?$basic_string@DU?$char_traits@D@std@@V?$allocator@D@2@@std@@@2@@std@@AEAAAEAV?$basic_string@DU?$char_traits@D@std@@V?$allocator@D@2@@1@AEAV21@@Z
	??$_Emplace_back_with_unused_capacity@AEAW4OperandType@Instruction@PLH@@@?$vector@W4OperandType@Instruction@PLH@@V?$allocator@W4OperandType@Instruction@PLH@@@std@@@std@@AEAAAEAW4OperandType@Instruction@PLH@@AEAW4234@@Z
	??$_Emplace_back_with_unused_capacity@AEAY08$$CBD@?$vector@V?$basic_string@DU?$char_traits@D@std@@V?$allocator@D@2@@std@@V?$allocator@V?$basic_string@DU?$char_traits@D@std@@V?$allocator@D@2@@std@@@2@@std@@AEAAAEAV?$basic_string@DU?$char_traits@D@std@@V?$allocator@D@2@@1@AEAY08$$CBD@Z
	??$_Emplace_back_with_unused_capacity@AEAY0BA@$$CBD@?$vector@V?$basic_string@DU?$char_traits@D@std@@V?$allocator@D@2@@std@@V?$allocator@V?$basic_string@DU?$char_traits@D@std@@V?$allocator@D@2@@std@@@2@@std@@AEAAAEAV?$basic_string@DU?$char_traits@D@std@@V?$allocator@D@2@@1@AEAY0BA@$$CBD@Z
	??$_Emplace_back_with_unused_capacity@AEAY0BG@$$CBD@?$vector@V?$basic_string@DU?$char_traits@D@std@@V?$allocator@D@2@@std@@V?$allocator@V?$basic_string@DU?$char_traits@D@std@@V?$allocator@D@2@@std@@@2@@std@@AEAAAEAV?$basic_string@DU?$char_traits@D@std@@V?$allocator@D@2@@1@AEAY0BG@$$CBD@Z
	??$_Emplace_back_with_unused_capacity@AEBUError@PLH@@@?$vector@UError@PLH@@V?$allocator@UError@PLH@@@std@@@std@@AEAAAEAUError@PLH@@AEBU23@@Z
	??$_Emplace_back_with_unused_capacity@AEBV?$shared_ptr@VFBAllocator@PLH@@@std@@@?$vector@V?$shared_ptr@VFBAllocator@PLH@@@std@@V?$allocator@V?$shared_ptr@VFBAllocator@PLH@@@std@@@2@@std@@AEAAAEAV?$shared_ptr@VFBAllocator@PLH@@@1@AEBV21@@Z
	??$_Emplace_back_with_unused_capacity@AEBVInstruction@PLH@@@?$vector@VInstruction@PLH@@V?$allocator@VInstruction@PLH@@@std@@@std@@AEAAAEAVInstruction@PLH@@AEBV23@@Z
	??$_Emplace_back_with_unused_capacity@AEBVReg@x86@_abi_1_10@asmjit@@@?$vector@VReg@x86@_abi_1_10@asmjit@@V?$allocator@VReg@x86@_abi_1_10@asmjit@@@std@@@std@@AEAAAEAVReg@x86@_abi_1_10@asmjit@@AEBV2345@@Z
	??$_Emplace_back_with_unused_capacity@V?$basic_string@DU?$char_traits@D@std@@V?$allocator@D@2@@std@@@?$vector@V?$basic_string@DU?$char_traits@D@std@@V?$allocator@D@2@@std@@V?$allocator@V?$basic_string@DU?$char_traits@D@std@@V?$allocator@D@2@@std@@@2@@std@@AEAAAEAV?$basic_string@DU?$char_traits@D@std@@V?$allocator@D@2@@1@$$QEAV21@@Z
	??$_Emplace_back_with_unused_capacity@VEffect@@@?$vector@VEffect@@V?$allocator@VEffect@@@std@@@std@@AEAAAEAVEffect@@$$QEAV2@@Z
	??$_Emplace_back_with_unused_capacity@VInstruction@PLH@@@?$vector@VInstruction@PLH@@V?$allocator@VInstruction@PLH@@@std@@@std@@AEAAAEAVInstruction@PLH@@$$QEAV23@@Z
	??$_Emplace_back_with_unused_capacity@W4TypeId@_abi_1_10@asmjit@@@?$vector@W4TypeId@_abi_1_10@asmjit@@V?$allocator@W4TypeId@_abi_1_10@asmjit@@@std@@@std@@AEAAAEAW4TypeId@_abi_1_10@asmjit@@$$QEAW4234@@Z
	??$_Emplace_hint@AEBU?$pair@$$CBV?$basic_string@DU?$char_traits@D@std@@V?$allocator@D@2@@std@@V12@@std@@@?$_Tree@V?$_Tmap_traits@V?$basic_string@DU?$char_traits@D@std@@V?$allocator@D@2@@std@@V12@U?$less@V?$basic_string@DU?$char_traits@D@std@@V?$allocator@D@2@@std@@@2@V?$allocator@U?$pair@$$CBV?$basic_string@DU?$char_traits@D@std@@V?$allocator@D@2@@std@@V12@@std@@@2@$0A@@std@@@std@@IEAAPEAU?$_Tree_node@U?$pair@$$CBV?$basic_string@DU?$char_traits@D@std@@V?$allocator@D@2@@std@@V12@@std@@PEAX@1@QEAU21@AEBU?$pair@$$CBV?$basic_string@DU?$char_traits@D@std@@V?$allocator@D@2@@std@@V12@@1@@Z
	??$_Emplace_hint@AEBU?$pair@$$CBW4ZydisRegisterClass_@@W4ZydisRegister_@@@std@@@?$_Tree@V?$_Tmap_traits@W4ZydisRegisterClass_@@W4ZydisRegister_@@U?$less@W4ZydisRegisterClass_@@@std@@V?$allocator@U?$pair@$$CBW4ZydisRegisterClass_@@W4ZydisRegister_@@@std@@@4@$0A@@std@@@std@@IEAAPEAU?$_Tree_node@U?$pair@$$CBW4ZydisRegisterClass_@@W4ZydisRegister_@@@std@@PEAX@1@QEAU21@AEBU?$pair@$$CBW4ZydisRegisterClass_@@W4ZydisRegister_@@@1@@Z
	??$_Emplace_hint@AEBU?$pair@$$CBW4ZydisRegister_@@W41@@std@@@?$_Tree@V?$_Tmap_traits@W4ZydisRegister_@@W41@U?$less@W4ZydisRegister_@@@std@@V?$allocator@U?$pair@$$CBW4ZydisRegister_@@W41@@std@@@3@$0A@@std@@@std@@IEAAPEAU?$_Tree_node@U?$pair@$$CBW4ZydisRegister_@@W41@@std@@PEAX@1@QEAU21@AEBU?$pair@$$CBW4ZydisRegister_@@W41@@1@@Z
	??$_Emplace_hint@AEBV?$basic_string@DU?$char_traits@D@std@@V?$allocator@D@2@@std@@@?$_Tree@V?$_Tset_traits@V?$basic_string@DU?$char_traits@D@std@@V?$allocator@D@2@@std@@U?$less@V?$basic_string@DU?$char_traits@D@std@@V?$allocator@D@2@@std@@@2@V?$allocator@V?$basic_string@DU?$char_traits@D@std@@V?$allocator@D@2@@std@@@2@$0A@@std@@@std@@IEAAPEAU?$_Tree_node@V?$basic_string@DU?$char_traits@D@std@@V?$allocator@D@2@@std@@PEAX@1@QEAU21@AEBV?$basic_string@DU?$char_traits@D@std@@V?$allocator@D@2@@1@@Z
	??$_Emplace_one_at_back@AEAV?$basic_string@DU?$char_traits@D@std@@V?$allocator@D@2@@std@@@?$vector@V?$basic_string@DU?$char_traits@D@std@@V?$allocator@D@2@@std@@V?$allocator@V?$basic_string@DU?$char_traits@D@std@@V?$allocator@D@2@@std@@@2@@std@@AEAAAEAV?$basic_string@DU?$char_traits@D@std@@V?$allocator@D@2@@1@AEAV21@@Z
	??$_Emplace_one_at_back@AEAW4OperandType@Instruction@PLH@@@?$vector@W4OperandType@Instruction@PLH@@V?$allocator@W4OperandType@Instruction@PLH@@@std@@@std@@AEAAAEAW4OperandType@Instruction@PLH@@AEAW4234@@Z
	??$_Emplace_one_at_back@AEAY08$$CBD@?$vector@V?$basic_string@DU?$char_traits@D@std@@V?$allocator@D@2@@std@@V?$allocator@V?$basic_string@DU?$char_traits@D@std@@V?$allocator@D@2@@std@@@2@@std@@AEAAAEAV?$basic_string@DU?$char_traits@D@std@@V?$allocator@D@2@@1@AEAY08$$CBD@Z
	??$_Emplace_one_at_back@AEAY0BA@$$CBD@?$vector@V?$basic_string@DU?$char_traits@D@std@@V?$allocator@D@2@@std@@V?$allocator@V?$basic_string@DU?$char_traits@D@std@@V?$allocator@D@2@@std@@@2@@std@@AEAAAEAV?$basic_string@DU?$char_traits@D@std@@V?$allocator@D@2@@1@AEAY0BA@$$CBD@Z
	??$_Emplace_one_at_back@AEAY0BG@$$CBD@?$vector@V?$basic_string@DU?$char_traits@D@std@@V?$allocator@D@2@@std@@V?$allocator@V?$basic_string@DU?$char_traits@D@std@@V?$allocator@D@2@@std@@@2@@std@@AEAAAEAV?$basic_string@DU?$char_traits@D@std@@V?$allocator@D@2@@1@AEAY0BG@$$CBD@Z
	??$_Emplace_one_at_back@AEBUError@PLH@@@?$vector@UError@PLH@@V?$allocator@UError@PLH@@@std@@@std@@AEAAAEAUError@PLH@@AEBU23@@Z
	??$_Emplace_one_at_back@AEBV?$shared_ptr@VFBAllocator@PLH@@@std@@@?$vector@V?$shared_ptr@VFBAllocator@PLH@@@std@@V?$allocator@V?$shared_ptr@VFBAllocator@PLH@@@std@@@2@@std@@AEAAAEAV?$shared_ptr@VFBAllocator@PLH@@@1@AEBV21@@Z
	??$_Emplace_one_at_back@AEBVInstruction@PLH@@@?$vector@VInstruction@PLH@@V?$allocator@VInstruction@PLH@@@std@@@std@@AEAAAEAVInstruction@PLH@@AEBV23@@Z
	??$_Emplace_one_at_back@AEBVReg@x86@_abi_1_10@asmjit@@@?$vector@VReg@x86@_abi_1_10@asmjit@@V?$allocator@VReg@x86@_abi_1_10@asmjit@@@std@@@std@@AEAAAEAVReg@x86@_abi_1_10@asmjit@@AEBV2345@@Z
	??$_Emplace_one_at_back@V?$basic_string@DU?$char_traits@D@std@@V?$allocator@D@2@@std@@@?$vector@V?$basic_string@DU?$char_traits@D@std@@V?$allocator@D@2@@std@@V?$allocator@V?$basic_string@DU?$char_traits@D@std@@V?$allocator@D@2@@std@@@2@@std@@AEAAAEAV?$basic_string@DU?$char_traits@D@std@@V?$allocator@D@2@@1@$$QEAV21@@Z
	??$_Emplace_one_at_back@VEffect@@@?$vector@VEffect@@V?$allocator@VEffect@@@std@@@std@@AEAAAEAVEffect@@$$QEAV2@@Z
	??$_Emplace_one_at_back@VInstruction@PLH@@@?$vector@VInstruction@PLH@@V?$allocator@VInstruction@PLH@@@std@@@std@@AEAAAEAVInstruction@PLH@@$$QEAV23@@Z
	??$_Emplace_one_at_back@W4TypeId@_abi_1_10@asmjit@@@?$vector@W4TypeId@_abi_1_10@asmjit@@V?$allocator@W4TypeId@_abi_1_10@asmjit@@@std@@@std@@AEAAAEAW4TypeId@_abi_1_10@asmjit@@$$QEAW4234@@Z
	??$_Emplace_reallocate@AEAV?$basic_string@DU?$char_traits@D@std@@V?$allocator@D@2@@std@@@?$vector@V?$basic_string@DU?$char_traits@D@std@@V?$allocator@D@2@@std@@V?$allocator@V?$basic_string@DU?$char_traits@D@std@@V?$allocator@D@2@@std@@@2@@std@@AEAAPEAV?$basic_string@DU?$char_traits@D@std@@V?$allocator@D@2@@1@QEAV21@AEAV21@@Z
	??$_Emplace_reallocate@AEAW4OperandType@Instruction@PLH@@@?$vector@W4OperandType@Instruction@PLH@@V?$allocator@W4OperandType@Instruction@PLH@@@std@@@std@@AEAAPEAW4OperandType@Instruction@PLH@@QEAW4234@AEAW4234@@Z
	??$_Emplace_reallocate@AEAY08$$CBD@?$vector@V?$basic_string@DU?$char_traits@D@std@@V?$allocator@D@2@@std@@V?$allocator@V?$basic_string@DU?$char_traits@D@std@@V?$allocator@D@2@@std@@@2@@std@@AEAAPEAV?$basic_string@DU?$char_traits@D@std@@V?$allocator@D@2@@1@QEAV21@AEAY08$$CBD@Z
	??$_Emplace_reallocate@AEAY0BA@$$CBD@?$vector@V?$basic_string@DU?$char_traits@D@std@@V?$allocator@D@2@@std@@V?$allocator@V?$basic_string@DU?$char_traits@D@std@@V?$allocator@D@2@@std@@@2@@std@@AEAAPEAV?$basic_string@DU?$char_traits@D@std@@V?$allocator@D@2@@1@QEAV21@AEAY0BA@$$CBD@Z
	??$_Emplace_reallocate@AEAY0BG@$$CBD@?$vector@V?$basic_string@DU?$char_traits@D@std@@V?$allocator@D@2@@std@@V?$allocator@V?$basic_string@DU?$char_traits@D@std@@V?$allocator@D@2@@std@@@2@@std@@AEAAPEAV?$basic_string@DU?$char_traits@D@std@@V?$allocator@D@2@@1@QEAV21@AEAY0BG@$$CBD@Z
	??$_Emplace_reallocate@AEBUError@PLH@@@?$vector@UError@PLH@@V?$allocator@UError@PLH@@@std@@@std@@AEAAPEAUError@PLH@@QEAU23@AEBU23@@Z
	??$_Emplace_reallocate@AEBV?$shared_ptr@VFBAllocator@PLH@@@std@@@?$vector@V?$shared_ptr@VFBAllocator@PLH@@@std@@V?$allocator@V?$shared_ptr@VFBAllocator@PLH@@@std@@@2@@std@@AEAAPEAV?$shared_ptr@VFBAllocator@PLH@@@1@QEAV21@AEBV21@@Z
	??$_Emplace_reallocate@AEBVInstruction@PLH@@@?$vector@VInstruction@PLH@@V?$allocator@VInstruction@PLH@@@std@@@std@@AEAAPEAVInstruction@PLH@@QEAV23@AEBV23@@Z
	??$_Emplace_reallocate@AEBVReg@x86@_abi_1_10@asmjit@@@?$vector@VReg@x86@_abi_1_10@asmjit@@V?$allocator@VReg@x86@_abi_1_10@asmjit@@@std@@@std@@AEAAPEAVReg@x86@_abi_1_10@asmjit@@QEAV2345@AEBV2345@@Z
	??$_Emplace_reallocate@V?$basic_string@DU?$char_traits@D@std@@V?$allocator@D@2@@std@@@?$vector@V?$basic_string@DU?$char_traits@D@std@@V?$allocator@D@2@@std@@V?$allocator@V?$basic_string@DU?$char_traits@D@std@@V?$allocator@D@2@@std@@@2@@std@@AEAAPEAV?$basic_string@DU?$char_traits@D@std@@V?$allocator@D@2@@1@QEAV21@$$QEAV21@@Z
	??$_Emplace_reallocate@VEffect@@@?$vector@VEffect@@V?$allocator@VEffect@@@std@@@std@@AEAAPEAVEffect@@QEAV2@$$QEAV2@@Z
	??$_Emplace_reallocate@VInstruction@PLH@@@?$vector@VInstruction@PLH@@V?$allocator@VInstruction@PLH@@@std@@@std@@AEAAPEAVInstruction@PLH@@QEAV23@$$QEAV23@@Z
	??$_Emplace_reallocate@W4TypeId@_abi_1_10@asmjit@@@?$vector@W4TypeId@_abi_1_10@asmjit@@V?$allocator@W4TypeId@_abi_1_10@asmjit@@@std@@@std@@AEAAPEAW4TypeId@_abi_1_10@asmjit@@QEAW4234@$$QEAW4234@@Z
	??$_Erase@UAVehHookImpEntry@PLH@@@?$_Hash@V?$_Uset_traits@UAVehHookImpEntry@PLH@@V?$_Uhash_compare@UAVehHookImpEntry@PLH@@U?$hash@UAVehHookImpEntry@PLH@@@std@@U?$equal_to@UAVehHookImpEntry@PLH@@@4@@std@@V?$allocator@UAVehHookImpEntry@PLH@@@4@$0A@@std@@@std@@AEAA_KAEBUAVehHookImpEntry@PLH@@@Z
	??$_Erase@_K@?$_Hash@V?$_Umap_traits@_KV?$shared_ptr@VFBAllocator@PLH@@@std@@V?$_Uhash_compare@_KU?$hash@_K@std@@U?$equal_to@_K@2@@2@V?$allocator@U?$pair@$$CB_KV?$shared_ptr@VFBAllocator@PLH@@@std@@@std@@@2@$0A@@std@@@std@@AEAA_KAEB_K@Z
	??$_Erase_head@V?$allocator@U?$_Tree_node@U?$pair@$$CBG_K@std@@PEAX@std@@@std@@@?$_Tree_val@U?$_Tree_simple_types@U?$pair@$$CBG_K@std@@@std@@@std@@QEAAXAEAV?$allocator@U?$_Tree_node@U?$pair@$$CBG_K@std@@PEAX@std@@@1@@Z
	??$_Erase_head@V?$allocator@U?$_Tree_node@U?$pair@$$CBV?$basic_string@DU?$char_traits@D@std@@V?$allocator@D@2@@std@@V12@@std@@PEAX@std@@@std@@@?$_Tree_val@U?$_Tree_simple_types@U?$pair@$$CBV?$basic_string@DU?$char_traits@D@std@@V?$allocator@D@2@@std@@V12@@std@@@std@@@std@@QEAAXAEAV?$allocator@U?$_Tree_node@U?$pair@$$CBV?$basic_string@DU?$char_traits@D@std@@V?$allocator@D@2@@std@@V12@@std@@PEAX@std@@@1@@Z
	??$_Erase_head@V?$allocator@U?$_Tree_node@U?$pair@$$CBW4ZydisRegisterClass_@@W4ZydisRegister_@@@std@@PEAX@std@@@std@@@?$_Tree_val@U?$_Tree_simple_types@U?$pair@$$CBW4ZydisRegisterClass_@@W4ZydisRegister_@@@std@@@std@@@std@@QEAAXAEAV?$allocator@U?$_Tree_node@U?$pair@$$CBW4ZydisRegisterClass_@@W4ZydisRegister_@@@std@@PEAX@std@@@1@@Z
	??$_Erase_head@V?$allocator@U?$_Tree_node@U?$pair@$$CBW4ZydisRegister_@@W41@@std@@PEAX@std@@@std@@@?$_Tree_val@U?$_Tree_simple_types@U?$pair@$$CBW4ZydisRegister_@@W41@@std@@@std@@@std@@QEAAXAEAV?$allocator@U?$_Tree_node@U?$pair@$$CBW4ZydisRegister_@@W41@@std@@PEAX@std@@@1@@Z
	??$_Erase_head@V?$allocator@U?$_Tree_node@V?$basic_string@DU?$char_traits@D@std@@V?$allocator@D@2@@std@@PEAX@std@@@std@@@?$_Tree_val@U?$_Tree_simple_types@V?$basic_string@DU?$char_traits@D@std@@V?$allocator@D@2@@std@@@std@@@std@@QEAAXAEAV?$allocator@U?$_Tree_node@V?$basic_string@DU?$char_traits@D@std@@V?$allocator@D@2@@std@@PEAX@std@@@1@@Z
	??$_Erase_tree@V?$allocator@U?$_Tree_node@U?$pair@$$CBG_K@std@@PEAX@std@@@std@@@?$_Tree_val@U?$_Tree_simple_types@U?$pair@$$CBG_K@std@@@std@@@std@@QEAAXAEAV?$allocator@U?$_Tree_node@U?$pair@$$CBG_K@std@@PEAX@std@@@1@PEAU?$_Tree_node@U?$pair@$$CBG_K@std@@PEAX@1@@Z
	??$_Erase_tree@V?$allocator@U?$_Tree_node@U?$pair@$$CBV?$basic_string@DU?$char_traits@D@std@@V?$allocator@D@2@@std@@V12@@std@@PEAX@std@@@std@@@?$_Tree_val@U?$_Tree_simple_types@U?$pair@$$CBV?$basic_string@DU?$char_traits@D@std@@V?$allocator@D@2@@std@@V12@@std@@@std@@@std@@QEAAXAEAV?$allocator@U?$_Tree_node@U?$pair@$$CBV?$basic_string@DU?$char_traits@D@std@@V?$allocator@D@2@@std@@V12@@std@@PEAX@std@@@1@PEAU?$_Tree_node@U?$pair@$$CBV?$basic_string@DU?$char_traits@D@std@@V?$allocator@D@2@@std@@V12@@std@@PEAX@1@@Z
	??$_Erase_tree@V?$allocator@U?$_Tree_node@U?$pair@$$CBW4ZydisRegisterClass_@@W4ZydisRegister_@@@std@@PEAX@std@@@std@@@?$_Tree_val@U?$_Tree_simple_types@U?$pair@$$CBW4ZydisRegisterClass_@@W4ZydisRegister_@@@std@@@std@@@std@@QEAAXAEAV?$allocator@U?$_Tree_node@U?$pair@$$CBW4ZydisRegisterClass_@@W4ZydisRegister_@@@std@@PEAX@std@@@1@PEAU?$_Tree_node@U?$pair@$$CBW4ZydisRegisterClass_@@W4ZydisRegister_@@@std@@PEAX@1@@Z
	??$_Erase_tree@V?$allocator@U?$_Tree_node@U?$pair@$$CBW4ZydisRegister_@@W41@@std@@PEAX@std@@@std@@@?$_Tree_val@U?$_Tree_simple_types@U?$pair@$$CBW4ZydisRegister_@@W41@@std@@@std@@@std@@QEAAXAEAV?$allocator@U?$_Tree_node@U?$pair@$$CBW4ZydisRegister_@@W41@@std@@PEAX@std@@@1@PEAU?$_Tree_node@U?$pair@$$CBW4ZydisRegister_@@W41@@std@@PEAX@1@@Z
	??$_Erase_tree@V?$allocator@U?$_Tree_node@V?$basic_string@DU?$char_traits@D@std@@V?$allocator@D@2@@std@@PEAX@std@@@std@@@?$_Tree_val@U?$_Tree_simple_types@V?$basic_string@DU?$char_traits@D@std@@V?$allocator@D@2@@std@@@std@@@std@@QEAAXAEAV?$allocator@U?$_Tree_node@V?$basic_string@DU?$char_traits@D@std@@V?$allocator@D@2@@std@@PEAX@std@@@1@PEAU?$_Tree_node@V?$basic_string@DU?$char_traits@D@std@@V?$allocator@D@2@@std@@PEAX@1@@Z
	??$_Erase_tree_and_orphan@V?$allocator@U?$_Tree_node@U?$pair@$$CBG_K@std@@PEAX@std@@@std@@@?$_Tree_val@U?$_Tree_simple_types@U?$pair@$$CBG_K@std@@@std@@@std@@QEAAXAEAV?$allocator@U?$_Tree_node@U?$pair@$$CBG_K@std@@PEAX@std@@@1@PEAU?$_Tree_node@U?$pair@$$CBG_K@std@@PEAX@1@@Z
	??$_Find@_K@?$_Hash@V?$_Umap_traits@_KV?$shared_ptr@VFBAllocator@PLH@@@std@@V?$_Uhash_compare@_KU?$hash@_K@std@@U?$equal_to@_K@2@@2@V?$allocator@U?$pair@$$CB_KV?$shared_ptr@VFBAllocator@PLH@@@std@@@std@@@2@$0A@@std@@@std@@AEBAPEAU?$_List_node@U?$pair@$$CB_KV?$shared_ptr@VFBAllocator@PLH@@@std@@@std@@PEAX@1@AEB_K_K@Z
	??$_Find@_K@?$_Hash@V?$_Umap_traits@_KV?$vector@VInstruction@PLH@@V?$allocator@VInstruction@PLH@@@std@@@std@@V?$_Uhash_compare@_KU?$hash@_K@std@@U?$equal_to@_K@2@@2@V?$allocator@U?$pair@$$CB_KV?$vector@VInstruction@PLH@@V?$allocator@VInstruction@PLH@@@std@@@std@@@std@@@2@$0A@@std@@@std@@AEBAPEAU?$_List_node@U?$pair@$$CB_KV?$vector@VInstruction@PLH@@V?$allocator@VInstruction@PLH@@@std@@@std@@@std@@PEAX@1@AEB_K_K@Z
	??$_Find_hint@V?$basic_string@DU?$char_traits@D@std@@V?$allocator@D@2@@std@@@?$_Tree@V?$_Tmap_traits@V?$basic_string@DU?$char_traits@D@std@@V?$allocator@D@2@@std@@V12@U?$less@V?$basic_string@DU?$char_traits@D@std@@V?$allocator@D@2@@std@@@2@V?$allocator@U?$pair@$$CBV?$basic_string@DU?$char_traits@D@std@@V?$allocator@D@2@@std@@V12@@std@@@2@$0A@@std@@@std@@IEBA?AU?$_Tree_find_hint_result@PEAU?$_Tree_node@U?$pair@$$CBV?$basic_string@DU?$char_traits@D@std@@V?$allocator@D@2@@std@@V12@@std@@PEAX@std@@@1@QEAU?$_Tree_node@U?$pair@$$CBV?$basic_string@DU?$char_traits@D@std@@V?$allocator@D@2@@std@@V12@@std@@PEAX@1@AEBV?$basic_string@DU?$char_traits@D@std@@V?$allocator@D@2@@1@@Z
	??$_Find_hint@V?$basic_string@DU?$char_traits@D@std@@V?$allocator@D@2@@std@@@?$_Tree@V?$_Tset_traits@V?$basic_string@DU?$char_traits@D@std@@V?$allocator@D@2@@std@@U?$less@V?$basic_string@DU?$char_traits@D@std@@V?$allocator@D@2@@std@@@2@V?$allocator@V?$basic_string@DU?$char_traits@D@std@@V?$allocator@D@2@@std@@@2@$0A@@std@@@std@@IEBA?AU?$_Tree_find_hint_result@PEAU?$_Tree_node@V?$basic_string@DU?$char_traits@D@std@@V?$allocator@D@2@@std@@PEAX@std@@@1@QEAU?$_Tree_node@V?$basic_string@DU?$char_traits@D@std@@V?$allocator@D@2@@std@@PEAX@1@AEBV?$basic_string@DU?$char_traits@D@std@@V?$allocator@D@2@@1@@Z
	??$_Find_hint@W4ZydisRegisterClass_@@@?$_Tree@V?$_Tmap_traits@W4ZydisRegisterClass_@@W4ZydisRegister_@@U?$less@W4ZydisRegisterClass_@@@std@@V?$allocator@U?$pair@$$CBW4ZydisRegisterClass_@@W4ZydisRegister_@@@std@@@4@$0A@@std@@@std@@IEBA?AU?$_Tree_find_hint_result@PEAU?$_Tree_node@U?$pair@$$CBW4ZydisRegisterClass_@@W4ZydisRegister_@@@std@@PEAX@std@@@1@QEAU?$_Tree_node@U?$pair@$$CBW4ZydisRegisterClass_@@W4ZydisRegister_@@@std@@PEAX@1@AEBW4ZydisRegisterClass_@@@Z
	??$_Find_hint@W4ZydisRegister_@@@?$_Tree@V?$_Tmap_traits@W4ZydisRegister_@@W41@U?$less@W4ZydisRegister_@@@std@@V?$allocator@U?$pair@$$CBW4ZydisRegister_@@W41@@std@@@3@$0A@@std@@@std@@IEBA?AU?$_Tree_find_hint_result@PEAU?$_Tree_node@U?$pair@$$CBW4ZydisRegister_@@W41@@std@@PEAX@std@@@1@QEAU?$_Tree_node@U?$pair@$$CBW4ZydisRegister_@@W41@@std@@PEAX@1@AEBW4ZydisRegister_@@@Z
	??$_Find_last@UAVehHookImpEntry@PLH@@@?$_Hash@V?$_Uset_traits@UAVehHookImpEntry@PLH@@V?$_Uhash_compare@UAVehHookImpEntry@PLH@@U?$hash@UAVehHookImpEntry@PLH@@@std@@U?$equal_to@UAVehHookImpEntry@PLH@@@4@@std@@V?$allocator@UAVehHookImpEntry@PLH@@@4@$0A@@std@@@std@@IEBA?AU?$_Hash_find_last_result@PEAU?$_List_node@UAVehHookImpEntry@PLH@@PEAX@std@@@1@AEBUAVehHookImpEntry@PLH@@_K@Z
	??$_Find_last@_K@?$_Hash@V?$_Umap_traits@_KV?$shared_ptr@VFBAllocator@PLH@@@std@@V?$_Uhash_compare@_KU?$hash@_K@std@@U?$equal_to@_K@2@@2@V?$allocator@U?$pair@$$CB_KV?$shared_ptr@VFBAllocator@PLH@@@std@@@std@@@2@$0A@@std@@@std@@IEBA?AU?$_Hash_find_last_result@PEAU?$_List_node@U?$pair@$$CB_KV?$shared_ptr@VFBAllocator@PLH@@@std@@@std@@PEAX@std@@@1@AEB_K_K@Z
	??$_Find_last@_K@?$_Hash@V?$_Umap_traits@_KV?$vector@VInstruction@PLH@@V?$allocator@VInstruction@PLH@@@std@@@std@@V?$_Uhash_compare@_KU?$hash@_K@std@@U?$equal_to@_K@2@@2@V?$allocator@U?$pair@$$CB_KV?$vector@VInstruction@PLH@@V?$allocator@VInstruction@PLH@@@std@@@std@@@std@@@2@$0A@@std@@@std@@IEBA?AU?$_Hash_find_last_result@PEAU?$_List_node@U?$pair@$$CB_KV?$vector@VInstruction@PLH@@V?$allocator@VInstruction@PLH@@@std@@@std@@@std@@PEAX@std@@@1@AEB_K_K@Z
	??$_Find_lower_bound@G@?$_Tree@V?$_Tmap_traits@G_KU?$less@G@std@@V?$allocator@U?$pair@$$CBG_K@std@@@2@$0A@@std@@@std@@IEBA?AU?$_Tree_find_result@PEAU?$_Tree_node@U?$pair@$$CBG_K@std@@PEAX@std@@@1@AEBG@Z
	??$_Find_lower_bound@V?$basic_string@DU?$char_traits@D@std@@V?$allocator@D@2@@std@@@?$_Tree@V?$_Tmap_traits@V?$basic_string@DU?$char_traits@D@std@@V?$allocator@D@2@@std@@V12@U?$less@V?$basic_string@DU?$char_traits@D@std@@V?$allocator@D@2@@std@@@2@V?$allocator@U?$pair@$$CBV?$basic_string@DU?$char_traits@D@std@@V?$allocator@D@2@@std@@V12@@std@@@2@$0A@@std@@@std@@IEBA?AU?$_Tree_find_result@PEAU?$_Tree_node@U?$pair@$$CBV?$basic_string@DU?$char_traits@D@std@@V?$allocator@D@2@@std@@V12@@std@@PEAX@std@@@1@AEBV?$basic_string@DU?$char_traits@D@std@@V?$allocator@D@2@@1@@Z
	??$_Find_lower_bound@V?$basic_string@DU?$char_traits@D@std@@V?$allocator@D@2@@std@@@?$_Tree@V?$_Tset_traits@V?$basic_string@DU?$char_traits@D@std@@V?$allocator@D@2@@std@@U?$less@V?$basic_string@DU?$char_traits@D@std@@V?$allocator@D@2@@std@@@2@V?$allocator@V?$basic_string@DU?$char_traits@D@std@@V?$allocator@D@2@@std@@@2@$0A@@std@@@std@@IEBA?AU?$_Tree_find_result@PEAU?$_Tree_node@V?$basic_string@DU?$char_traits@D@std@@V?$allocator@D@2@@std@@PEAX@std@@@1@AEBV?$basic_string@DU?$char_traits@D@std@@V?$allocator@D@2@@1@@Z
	??$_Find_lower_bound@W4ZydisRegisterClass_@@@?$_Tree@V?$_Tmap_traits@W4ZydisRegisterClass_@@W4ZydisRegister_@@U?$less@W4ZydisRegisterClass_@@@std@@V?$allocator@U?$pair@$$CBW4ZydisRegisterClass_@@W4ZydisRegister_@@@std@@@4@$0A@@std@@@std@@IEBA?AU?$_Tree_find_result@PEAU?$_Tree_node@U?$pair@$$CBW4ZydisRegisterClass_@@W4ZydisRegister_@@@std@@PEAX@std@@@1@AEBW4ZydisRegisterClass_@@@Z
	??$_Find_lower_bound@W4ZydisRegister_@@@?$_Tree@V?$_Tmap_traits@W4ZydisRegister_@@W41@U?$less@W4ZydisRegister_@@@std@@V?$allocator@U?$pair@$$CBW4ZydisRegister_@@W41@@std@@@3@$0A@@std@@@std@@IEBA?AU?$_Tree_find_result@PEAU?$_Tree_node@U?$pair@$$CBW4ZydisRegister_@@W41@@std@@PEAX@std@@@1@AEBW4ZydisRegister_@@@Z
	??$_Find_unchecked@PEAV?$shared_ptr@VFBAllocator@PLH@@@std@@V12@@std@@YAPEAV?$shared_ptr@VFBAllocator@PLH@@@0@PEAV10@QEAV10@AEBV10@@Z
	??$_Find_unchecked@PEAVInstruction@PLH@@V12@@std@@YAPEAVInstruction@PLH@@PEAV12@QEAV12@AEBV12@@Z
	??$_Find_unchecked@PEBVInstruction@PLH@@V12@@std@@YAPEBVInstruction@PLH@@PEBV12@QEBV12@AEBV12@@Z
	??$_Fnv1a_append_value@_K@std@@YA_K_KAEB_K@Z
	??$_Free_non_head@V?$allocator@U?$_List_node@U?$pair@$$CB_KV?$shared_ptr@VFBAllocator@PLH@@@std@@@std@@PEAX@std@@@std@@@?$_List_node@U?$pair@$$CB_KV?$shared_ptr@VFBAllocator@PLH@@@std@@@std@@PEAX@std@@SAXAEAV?$allocator@U?$_List_node@U?$pair@$$CB_KV?$shared_ptr@VFBAllocator@PLH@@@std@@@std@@PEAX@std@@@1@PEAU01@@Z
	??$_Free_non_head@V?$allocator@U?$_List_node@U?$pair@$$CB_KV?$vector@VInstruction@PLH@@V?$allocator@VInstruction@PLH@@@std@@@std@@@std@@PEAX@std@@@std@@@?$_List_node@U?$pair@$$CB_KV?$vector@VInstruction@PLH@@V?$allocator@VInstruction@PLH@@@std@@@std@@@std@@PEAX@std@@SAXAEAV?$allocator@U?$_List_node@U?$pair@$$CB_KV?$vector@VInstruction@PLH@@V?$allocator@VInstruction@PLH@@@std@@@std@@@std@@PEAX@std@@@1@PEAU01@@Z
	??$_Free_non_head@V?$allocator@U?$_List_node@UAVehHookImpEntry@PLH@@PEAX@std@@@std@@@?$_List_node@UAVehHookImpEntry@PLH@@PEAX@std@@SAXAEAV?$allocator@U?$_List_node@UAVehHookImpEntry@PLH@@PEAX@std@@@1@PEAU01@@Z
	??$_Freenode0@V?$allocator@U?$_List_node@U?$pair@$$CB_KV?$shared_ptr@VFBAllocator@PLH@@@std@@@std@@PEAX@std@@@std@@@?$_List_node@U?$pair@$$CB_KV?$shared_ptr@VFBAllocator@PLH@@@std@@@std@@PEAX@std@@SAXAEAV?$allocator@U?$_List_node@U?$pair@$$CB_KV?$shared_ptr@VFBAllocator@PLH@@@std@@@std@@PEAX@std@@@1@PEAU01@@Z
	??$_Freenode0@V?$allocator@U?$_List_node@U?$pair@$$CB_KV?$vector@VInstruction@PLH@@V?$allocator@VInstruction@PLH@@@std@@@std@@@std@@PEAX@std@@@std@@@?$_List_node@U?$pair@$$CB_KV?$vector@VInstruction@PLH@@V?$allocator@VInstruction@PLH@@@std@@@std@@@std@@PEAX@std@@SAXAEAV?$allocator@U?$_List_node@U?$pair@$$CB_KV?$vector@VInstruction@PLH@@V?$allocator@VInstruction@PLH@@@std@@@std@@@std@@PEAX@std@@@1@PEAU01@@Z
	??$_Freenode0@V?$allocator@U?$_List_node@UAVehHookImpEntry@PLH@@PEAX@std@@@std@@@?$_List_node@UAVehHookImpEntry@PLH@@PEAX@std@@SAXAEAV?$allocator@U?$_List_node@UAVehHookImpEntry@PLH@@PEAX@std@@@1@PEAU01@@Z
	??$_Freenode0@V?$allocator@U?$_Tree_node@U?$pair@$$CBG_K@std@@PEAX@std@@@std@@@?$_Tree_node@U?$pair@$$CBG_K@std@@PEAX@std@@SAXAEAV?$allocator@U?$_Tree_node@U?$pair@$$CBG_K@std@@PEAX@std@@@1@PEAU01@@Z
	??$_Freenode0@V?$allocator@U?$_Tree_node@U?$pair@$$CBV?$basic_string@DU?$char_traits@D@std@@V?$allocator@D@2@@std@@V12@@std@@PEAX@std@@@std@@@?$_Tree_node@U?$pair@$$CBV?$basic_string@DU?$char_traits@D@std@@V?$allocator@D@2@@std@@V12@@std@@PEAX@std@@SAXAEAV?$allocator@U?$_Tree_node@U?$pair@$$CBV?$basic_string@DU?$char_traits@D@std@@V?$allocator@D@2@@std@@V12@@std@@PEAX@std@@@1@PEAU01@@Z
	??$_Freenode0@V?$allocator@U?$_Tree_node@U?$pair@$$CBW4ZydisRegisterClass_@@W4ZydisRegister_@@@std@@PEAX@std@@@std@@@?$_Tree_node@U?$pair@$$CBW4ZydisRegisterClass_@@W4ZydisRegister_@@@std@@PEAX@std@@SAXAEAV?$allocator@U?$_Tree_node@U?$pair@$$CBW4ZydisRegisterClass_@@W4ZydisRegister_@@@std@@PEAX@std@@@1@PEAU01@@Z
	??$_Freenode0@V?$allocator@U?$_Tree_node@U?$pair@$$CBW4ZydisRegister_@@W41@@std@@PEAX@std@@@std@@@?$_Tree_node@U?$pair@$$CBW4ZydisRegister_@@W41@@std@@PEAX@std@@SAXAEAV?$allocator@U?$_Tree_node@U?$pair@$$CBW4ZydisRegister_@@W41@@std@@PEAX@std@@@1@PEAU01@@Z
	??$_Freenode0@V?$allocator@U?$_Tree_node@V?$basic_string@DU?$char_traits@D@std@@V?$allocator@D@2@@std@@PEAX@std@@@std@@@?$_Tree_node@V?$basic_string@DU?$char_traits@D@std@@V?$allocator@D@2@@std@@PEAX@std@@SAXAEAV?$allocator@U?$_Tree_node@V?$basic_string@DU?$char_traits@D@std@@V?$allocator@D@2@@std@@PEAX@std@@@1@PEAU01@@Z
	??$_Freenode@V?$allocator@U?$_List_node@U?$pair@$$CB_KV?$shared_ptr@VFBAllocator@PLH@@@std@@@std@@PEAX@std@@@std@@@?$_List_node@U?$pair@$$CB_KV?$shared_ptr@VFBAllocator@PLH@@@std@@@std@@PEAX@std@@SAXAEAV?$allocator@U?$_List_node@U?$pair@$$CB_KV?$shared_ptr@VFBAllocator@PLH@@@std@@@std@@PEAX@std@@@1@PEAU01@@Z
	??$_Freenode@V?$allocator@U?$_List_node@U?$pair@$$CB_KV?$vector@VInstruction@PLH@@V?$allocator@VInstruction@PLH@@@std@@@std@@@std@@PEAX@std@@@std@@@?$_List_node@U?$pair@$$CB_KV?$vector@VInstruction@PLH@@V?$allocator@VInstruction@PLH@@@std@@@std@@@std@@PEAX@std@@SAXAEAV?$allocator@U?$_List_node@U?$pair@$$CB_KV?$vector@VInstruction@PLH@@V?$allocator@VInstruction@PLH@@@std@@@std@@@std@@PEAX@std@@@1@PEAU01@@Z
	??$_Freenode@V?$allocator@U?$_List_node@UAVehHookImpEntry@PLH@@PEAX@std@@@std@@@?$_List_node@UAVehHookImpEntry@PLH@@PEAX@std@@SAXAEAV?$allocator@U?$_List_node@UAVehHookImpEntry@PLH@@PEAX@std@@@1@PEAU01@@Z
	??$_Freenode@V?$allocator@U?$_Tree_node@U?$pair@$$CBG_K@std@@PEAX@std@@@std@@@?$_Tree_node@U?$pair@$$CBG_K@std@@PEAX@std@@SAXAEAV?$allocator@U?$_Tree_node@U?$pair@$$CBG_K@std@@PEAX@std@@@1@PEAU01@@Z
	??$_Freenode@V?$allocator@U?$_Tree_node@U?$pair@$$CBV?$basic_string@DU?$char_traits@D@std@@V?$allocator@D@2@@std@@V12@@std@@PEAX@std@@@std@@@?$_Tree_node@U?$pair@$$CBV?$basic_string@DU?$char_traits@D@std@@V?$allocator@D@2@@std@@V12@@std@@PEAX@std@@SAXAEAV?$allocator@U?$_Tree_node@U?$pair@$$CBV?$basic_string@DU?$char_traits@D@std@@V?$allocator@D@2@@std@@V12@@std@@PEAX@std@@@1@PEAU01@@Z
	??$_Freenode@V?$allocator@U?$_Tree_node@U?$pair@$$CBW4ZydisRegisterClass_@@W4ZydisRegister_@@@std@@PEAX@std@@@std@@@?$_Tree_node@U?$pair@$$CBW4ZydisRegisterClass_@@W4ZydisRegister_@@@std@@PEAX@std@@SAXAEAV?$allocator@U?$_Tree_node@U?$pair@$$CBW4ZydisRegisterClass_@@W4ZydisRegister_@@@std@@PEAX@std@@@1@PEAU01@@Z
	??$_Freenode@V?$allocator@U?$_Tree_node@U?$pair@$$CBW4ZydisRegister_@@W41@@std@@PEAX@std@@@std@@@?$_Tree_node@U?$pair@$$CBW4ZydisRegister_@@W41@@std@@PEAX@std@@SAXAEAV?$allocator@U?$_Tree_node@U?$pair@$$CBW4ZydisRegister_@@W41@@std@@PEAX@std@@@1@PEAU01@@Z
	??$_Freenode@V?$allocator@U?$_Tree_node@V?$basic_string@DU?$char_traits@D@std@@V?$allocator@D@2@@std@@PEAX@std@@@std@@@?$_Tree_node@V?$basic_string@DU?$char_traits@D@std@@V?$allocator@D@2@@std@@PEAX@std@@SAXAEAV?$allocator@U?$_Tree_node@V?$basic_string@DU?$char_traits@D@std@@V?$allocator@D@2@@std@@PEAX@std@@@1@PEAU01@@Z
	??$_Get_size_of_n@$00@std@@YA_K_K@Z
	??$_Get_size_of_n@$01@std@@YA_K_K@Z
	??$_Get_size_of_n@$03@std@@YA_K_K@Z
	??$_Get_size_of_n@$07@std@@YA_K_K@Z
	??$_Get_size_of_n@$0BA@@std@@YA_K_K@Z
	??$_Get_size_of_n@$0CA@@std@@YA_K_K@Z
	??$_Get_size_of_n@$0CI@@std@@YA_K_K@Z
	??$_Get_size_of_n@$0DA@@std@@YA_K_K@Z
	??$_Get_size_of_n@$0EA@@std@@YA_K_K@Z
	??$_Get_size_of_n@$0GA@@std@@YA_K_K@Z
	??$_Get_size_of_n@$0KI@@std@@YA_K_K@Z
	??$_Get_unwrapped@AEAPEAD@std@@YA?A_TAEAPEAD@Z
	??$_Get_unwrapped@AEAPEAE@std@@YA?A_TAEAPEAE@Z
	??$_Get_unwrapped@AEAPEB_W@std@@YA?A_TAEAPEB_W@Z
	??$_Get_unwrapped@AEAV?$_Vector_const_iterator@V?$_Vector_val@U?$_Simple_types@V?$basic_string@DU?$char_traits@D@std@@V?$allocator@D@2@@std@@@std@@@std@@@std@@@std@@YA?A_TAEAV?$_Vector_const_iterator@V?$_Vector_val@U?$_Simple_types@V?$basic_string@DU?$char_traits@D@std@@V?$allocator@D@2@@std@@@std@@@std@@@0@@Z
	??$_Get_unwrapped@AEAV?$_Vector_const_iterator@V?$_Vector_val@U?$_Simple_types@VInstruction@PLH@@@std@@@std@@@std@@@std@@YA?A_TAEAV?$_Vector_const_iterator@V?$_Vector_val@U?$_Simple_types@VInstruction@PLH@@@std@@@std@@@0@@Z
	??$_Get_unwrapped@AEAV?$_Vector_iterator@V?$_Vector_val@U?$_Simple_types@V?$basic_string@DU?$char_traits@D@std@@V?$allocator@D@2@@std@@@std@@@std@@@std@@@std@@YA?A_TAEAV?$_Vector_iterator@V?$_Vector_val@U?$_Simple_types@V?$basic_string@DU?$char_traits@D@std@@V?$allocator@D@2@@std@@@std@@@std@@@0@@Z
	??$_Get_unwrapped@AEAV?$_Vector_iterator@V?$_Vector_val@U?$_Simple_types@V?$shared_ptr@VFBAllocator@PLH@@@std@@@std@@@std@@@std@@@std@@YA?A_TAEAV?$_Vector_iterator@V?$_Vector_val@U?$_Simple_types@V?$shared_ptr@VFBAllocator@PLH@@@std@@@std@@@std@@@0@@Z
	??$_Get_unwrapped@AEAV?$_Vector_iterator@V?$_Vector_val@U?$_Simple_types@VInstruction@PLH@@@std@@@std@@@std@@@std@@YA?A_TAEAV?$_Vector_iterator@V?$_Vector_val@U?$_Simple_types@VInstruction@PLH@@@std@@@std@@@0@@Z
	??$_Get_unwrapped@AEBQEAE@std@@YA?A_TAEBQEAE@Z
	??$_Get_unwrapped@AEBQEAUError@PLH@@@std@@YA?A_TAEBQEAUError@PLH@@@Z
	??$_Get_unwrapped@AEBQEAV?$_List_unchecked_const_iterator@V?$_List_val@U?$_List_simple_types@UAVehHookImpEntry@PLH@@@std@@@std@@U_Iterator_base0@2@@std@@@std@@YA?A_TAEBQEAV?$_List_unchecked_const_iterator@V?$_List_val@U?$_List_simple_types@UAVehHookImpEntry@PLH@@@std@@@std@@U_Iterator_base0@2@@0@@Z
	??$_Get_unwrapped@AEBQEAV?$_List_unchecked_iterator@V?$_List_val@U?$_List_simple_types@U?$pair@$$CB_KV?$shared_ptr@VFBAllocator@PLH@@@std@@@std@@@std@@@std@@@std@@@std@@YA?A_TAEBQEAV?$_List_unchecked_iterator@V?$_List_val@U?$_List_simple_types@U?$pair@$$CB_KV?$shared_ptr@VFBAllocator@PLH@@@std@@@std@@@std@@@std@@@0@@Z
	??$_Get_unwrapped@AEBQEAV?$_List_unchecked_iterator@V?$_List_val@U?$_List_simple_types@U?$pair@$$CB_KV?$vector@VInstruction@PLH@@V?$allocator@VInstruction@PLH@@@std@@@std@@@std@@@std@@@std@@@std@@@std@@YA?A_TAEBQEAV?$_List_unchecked_iterator@V?$_List_val@U?$_List_simple_types@U?$pair@$$CB_KV?$vector@VInstruction@PLH@@V?$allocator@VInstruction@PLH@@@std@@@std@@@std@@@std@@@std@@@0@@Z
	??$_Get_unwrapped@AEBQEAV?$basic_string@DU?$char_traits@D@std@@V?$allocator@D@2@@std@@@std@@YA?A_TAEBQEAV?$basic_string@DU?$char_traits@D@std@@V?$allocator@D@2@@0@@Z
	??$_Get_unwrapped@AEBQEAV?$shared_ptr@VFBAllocator@PLH@@@std@@@std@@YA?A_TAEBQEAV?$shared_ptr@VFBAllocator@PLH@@@0@@Z
	??$_Get_unwrapped@AEBQEAVEffect@@@std@@YA?A_TAEBQEAVEffect@@@Z
	??$_Get_unwrapped@AEBQEAVInstruction@PLH@@@std@@YA?A_TAEBQEAVInstruction@PLH@@@Z
	??$_Get_unwrapped@AEBQEAVReg@x86@_abi_1_10@asmjit@@@std@@YA?A_TAEBQEAVReg@x86@_abi_1_10@asmjit@@@Z
	??$_Get_unwrapped@AEBQEAW4OperandType@Instruction@PLH@@@std@@YA?A_TAEBQEAW4OperandType@Instruction@PLH@@@Z
	??$_Get_unwrapped@AEBQEAW4TypeId@_abi_1_10@asmjit@@@std@@YA?A_TAEBQEAW4TypeId@_abi_1_10@asmjit@@@Z
	??$_Get_unwrapped@AEBQEB_W@std@@YA?A_TAEBQEB_W@Z
	??$_Get_unwrapped@AEBV?$_Vector_const_iterator@V?$_Vector_val@U?$_Simple_types@VInstruction@PLH@@@std@@@std@@@std@@@std@@YA?A_TAEBV?$_Vector_const_iterator@V?$_Vector_val@U?$_Simple_types@VInstruction@PLH@@@std@@@std@@@0@@Z
	??$_Get_unwrapped@AEBV?$_Vector_iterator@V?$_Vector_val@U?$_Simple_types@V?$shared_ptr@VFBAllocator@PLH@@@std@@@std@@@std@@@std@@@std@@YA?A_TAEBV?$_Vector_iterator@V?$_Vector_val@U?$_Simple_types@V?$shared_ptr@VFBAllocator@PLH@@@std@@@std@@@std@@@0@@Z
	??$_Get_unwrapped@AEBV?$_Vector_iterator@V?$_Vector_val@U?$_Simple_types@VInstruction@PLH@@@std@@@std@@@std@@@std@@YA?A_TAEBV?$_Vector_iterator@V?$_Vector_val@U?$_Simple_types@VInstruction@PLH@@@std@@@std@@@0@@Z
	??$_Get_unwrapped@PEAE@std@@YA?A_T$$QEAPEAE@Z
	??$_Get_unwrapped@PEAVInstruction@PLH@@@std@@YA?A_T$$QEAPEAVInstruction@PLH@@@Z
	??$_Get_unwrapped@PEAW4OperandType@Instruction@PLH@@@std@@YA?A_T$$QEAPEAW4OperandType@Instruction@PLH@@@Z
	??$_Get_unwrapped@PEBE@std@@YA?A_T$$QEAPEBE@Z
	??$_Get_unwrapped@PEBV?$basic_string@DU?$char_traits@D@std@@V?$allocator@D@2@@std@@@std@@YA?A_T$$QEAPEBV?$basic_string@DU?$char_traits@D@std@@V?$allocator@D@2@@0@@Z
	??$_Get_unwrapped@PEBVInstruction@PLH@@@std@@YA?A_T$$QEAPEBVInstruction@PLH@@@Z
	??$_Get_unwrapped_n@AEAV?$ostream_iterator@V?$basic_string@DU?$char_traits@D@std@@V?$allocator@D@2@@std@@DU?$char_traits@D@2@@std@@_J@std@@YA?A_TAEAV?$ostream_iterator@V?$basic_string@DU?$char_traits@D@std@@V?$allocator@D@2@@std@@DU?$char_traits@D@2@@0@_J@Z
	??$_Getvals@_W@?$time_get@DV?$istreambuf_iterator@DU?$char_traits@D@std@@@std@@@std@@IEAAX_WAEBV_Locinfo@1@@Z
	??$_Getvals@_W@?$time_get@_WV?$istreambuf_iterator@_WU?$char_traits@_W@std@@@std@@@std@@IEAAX_WAEBV_Locinfo@1@@Z
	??$_Hash_representation@_K@std@@YA_KAEB_K@Z
	??$_Idl_distance@V?$_Vector_iterator@V?$_Vector_val@U?$_Simple_types@V?$basic_string@DU?$char_traits@D@std@@V?$allocator@D@2@@std@@@std@@@std@@@std@@PEAV?$basic_string@DU?$char_traits@D@std@@V?$allocator@D@2@@2@@std@@YA?A_PAEBQEAV?$basic_string@DU?$char_traits@D@std@@V?$allocator@D@2@@0@0@Z
	??$_Insert_counted_range@PEAVInstruction@PLH@@@?$vector@VInstruction@PLH@@V?$allocator@VInstruction@PLH@@@std@@@std@@AEAAXV?$_Vector_const_iterator@V?$_Vector_val@U?$_Simple_types@VInstruction@PLH@@@std@@@std@@@1@PEAVInstruction@PLH@@_K@Z
	??$_Insert_counted_range@PEBV?$basic_string@DU?$char_traits@D@std@@V?$allocator@D@2@@std@@@?$vector@V?$basic_string@DU?$char_traits@D@std@@V?$allocator@D@2@@std@@V?$allocator@V?$basic_string@DU?$char_traits@D@std@@V?$allocator@D@2@@std@@@2@@std@@AEAAXV?$_Vector_const_iterator@V?$_Vector_val@U?$_Simple_types@V?$basic_string@DU?$char_traits@D@std@@V?$allocator@D@2@@std@@@std@@@std@@@1@PEBV?$basic_string@DU?$char_traits@D@std@@V?$allocator@D@2@@1@_K@Z
	??$_Insert_range_unchecked@PEBU?$pair@$$CBV?$basic_string@DU?$char_traits@D@std@@V?$allocator@D@2@@std@@V12@@std@@PEBU12@@?$_Tree@V?$_Tmap_traits@V?$basic_string@DU?$char_traits@D@std@@V?$allocator@D@2@@std@@V12@U?$less@V?$basic_string@DU?$char_traits@D@std@@V?$allocator@D@2@@std@@@2@V?$allocator@U?$pair@$$CBV?$basic_string@DU?$char_traits@D@std@@V?$allocator@D@2@@std@@V12@@std@@@2@$0A@@std@@@std@@IEAAXPEBU?$pair@$$CBV?$basic_string@DU?$char_traits@D@std@@V?$allocator@D@2@@std@@V12@@1@QEBU21@@Z
	??$_Insert_range_unchecked@PEBU?$pair@$$CBW4ZydisRegisterClass_@@W4ZydisRegister_@@@std@@PEBU12@@?$_Tree@V?$_Tmap_traits@W4ZydisRegisterClass_@@W4ZydisRegister_@@U?$less@W4ZydisRegisterClass_@@@std@@V?$allocator@U?$pair@$$CBW4ZydisRegisterClass_@@W4ZydisRegister_@@@std@@@4@$0A@@std@@@std@@IEAAXPEBU?$pair@$$CBW4ZydisRegisterClass_@@W4ZydisRegister_@@@1@QEBU21@@Z
	??$_Insert_range_unchecked@PEBU?$pair@$$CBW4ZydisRegister_@@W41@@std@@PEBU12@@?$_Tree@V?$_Tmap_traits@W4ZydisRegister_@@W41@U?$less@W4ZydisRegister_@@@std@@V?$allocator@U?$pair@$$CBW4ZydisRegister_@@W41@@std@@@3@$0A@@std@@@std@@IEAAXPEBU?$pair@$$CBW4ZydisRegister_@@W41@@1@QEBU21@@Z
	??$_Insert_range_unchecked@PEBV?$basic_string@DU?$char_traits@D@std@@V?$allocator@D@2@@std@@PEBV12@@?$_Tree@V?$_Tset_traits@V?$basic_string@DU?$char_traits@D@std@@V?$allocator@D@2@@std@@U?$less@V?$basic_string@DU?$char_traits@D@std@@V?$allocator@D@2@@std@@@2@V?$allocator@V?$basic_string@DU?$char_traits@D@std@@V?$allocator@D@2@@std@@@2@$0A@@std@@@std@@IEAAXPEBV?$basic_string@DU?$char_traits@D@std@@V?$allocator@D@2@@1@QEBV21@@Z
	??$_Insert_string@DU?$char_traits@D@std@@_K@std@@YAAEAV?$basic_ostream@DU?$char_traits@D@std@@@0@AEAV10@QEBD_K@Z
	??$_Integral_to_string@DH@std@@YA?AV?$basic_string@DU?$char_traits@D@std@@V?$allocator@D@2@@0@H@Z
	??$_Kfn@$$CBG_K@?$_Tmap_traits@G_KU?$less@G@std@@V?$allocator@U?$pair@$$CBG_K@std@@@2@$0A@@std@@SAAEBGAEBU?$pair@$$CBG_K@1@@Z
	??$_Kfn@$$CBV?$basic_string@DU?$char_traits@D@std@@V?$allocator@D@2@@std@@V12@@?$_Tmap_traits@V?$basic_string@DU?$char_traits@D@std@@V?$allocator@D@2@@std@@V12@U?$less@V?$basic_string@DU?$char_traits@D@std@@V?$allocator@D@2@@std@@@2@V?$allocator@U?$pair@$$CBV?$basic_string@DU?$char_traits@D@std@@V?$allocator@D@2@@std@@V12@@std@@@2@$0A@@std@@SAAEBV?$basic_string@DU?$char_traits@D@std@@V?$allocator@D@2@@1@AEBU?$pair@$$CBV?$basic_string@DU?$char_traits@D@std@@V?$allocator@D@2@@std@@V12@@1@@Z
	??$_Kfn@$$CBW4ZydisRegisterClass_@@W4ZydisRegister_@@@?$_Tmap_traits@W4ZydisRegisterClass_@@W4ZydisRegister_@@U?$less@W4ZydisRegisterClass_@@@std@@V?$allocator@U?$pair@$$CBW4ZydisRegisterClass_@@W4ZydisRegister_@@@std@@@4@$0A@@std@@SAAEBW4ZydisRegisterClass_@@AEBU?$pair@$$CBW4ZydisRegisterClass_@@W4ZydisRegister_@@@1@@Z
	??$_Kfn@$$CBW4ZydisRegister_@@W41@@?$_Tmap_traits@W4ZydisRegister_@@W41@U?$less@W4ZydisRegister_@@@std@@V?$allocator@U?$pair@$$CBW4ZydisRegister_@@W41@@std@@@3@$0A@@std@@SAAEBW4ZydisRegister_@@AEBU?$pair@$$CBW4ZydisRegister_@@W41@@1@@Z
	??$_Kfn@$$CB_KV?$shared_ptr@VFBAllocator@PLH@@@std@@@?$_Umap_traits@_KV?$shared_ptr@VFBAllocator@PLH@@@std@@V?$_Uhash_compare@_KU?$hash@_K@std@@U?$equal_to@_K@2@@2@V?$allocator@U?$pair@$$CB_KV?$shared_ptr@VFBAllocator@PLH@@@std@@@std@@@2@$0A@@std@@SAAEB_KAEBU?$pair@$$CB_KV?$shared_ptr@VFBAllocator@PLH@@@std@@@1@@Z
	??$_Kfn@$$CB_KV?$vector@VInstruction@PLH@@V?$allocator@VInstruction@PLH@@@std@@@std@@@?$_Umap_traits@_KV?$vector@VInstruction@PLH@@V?$allocator@VInstruction@PLH@@@std@@@std@@V?$_Uhash_compare@_KU?$hash@_K@std@@U?$equal_to@_K@2@@2@V?$allocator@U?$pair@$$CB_KV?$vector@VInstruction@PLH@@V?$allocator@VInstruction@PLH@@@std@@@std@@@std@@@2@$0A@@std@@SAAEB_KAEBU?$pair@$$CB_KV?$vector@VInstruction@PLH@@V?$allocator@VInstruction@PLH@@@std@@@std@@@1@@Z
	??$_Lower_bound_duplicate@G@?$_Tree@V?$_Tmap_traits@G_KU?$less@G@std@@V?$allocator@U?$pair@$$CBG_K@std@@@2@$0A@@std@@@std@@IEBA_NQEAU?$_Tree_node@U?$pair@$$CBG_K@std@@PEAX@1@AEBG@Z
	??$_Lower_bound_duplicate@V?$basic_string@DU?$char_traits@D@std@@V?$allocator@D@2@@std@@@?$_Tree@V?$_Tmap_traits@V?$basic_string@DU?$char_traits@D@std@@V?$allocator@D@2@@std@@V12@U?$less@V?$basic_string@DU?$char_traits@D@std@@V?$allocator@D@2@@std@@@2@V?$allocator@U?$pair@$$CBV?$basic_string@DU?$char_traits@D@std@@V?$allocator@D@2@@std@@V12@@std@@@2@$0A@@std@@@std@@IEBA_NQEAU?$_Tree_node@U?$pair@$$CBV?$basic_string@DU?$char_traits@D@std@@V?$allocator@D@2@@std@@V12@@std@@PEAX@1@AEBV?$basic_string@DU?$char_traits@D@std@@V?$allocator@D@2@@1@@Z
	??$_Lower_bound_duplicate@V?$basic_string@DU?$char_traits@D@std@@V?$allocator@D@2@@std@@@?$_Tree@V?$_Tset_traits@V?$basic_string@DU?$char_traits@D@std@@V?$allocator@D@2@@std@@U?$less@V?$basic_string@DU?$char_traits@D@std@@V?$allocator@D@2@@std@@@2@V?$allocator@V?$basic_string@DU?$char_traits@D@std@@V?$allocator@D@2@@std@@@2@$0A@@std@@@std@@IEBA_NQEAU?$_Tree_node@V?$basic_string@DU?$char_traits@D@std@@V?$allocator@D@2@@std@@PEAX@1@AEBV?$basic_string@DU?$char_traits@D@std@@V?$allocator@D@2@@1@@Z
	??$_Lower_bound_duplicate@W4ZydisRegisterClass_@@@?$_Tree@V?$_Tmap_traits@W4ZydisRegisterClass_@@W4ZydisRegister_@@U?$less@W4ZydisRegisterClass_@@@std@@V?$allocator@U?$pair@$$CBW4ZydisRegisterClass_@@W4ZydisRegister_@@@std@@@4@$0A@@std@@@std@@IEBA_NQEAU?$_Tree_node@U?$pair@$$CBW4ZydisRegisterClass_@@W4ZydisRegister_@@@std@@PEAX@1@AEBW4ZydisRegisterClass_@@@Z
	??$_Lower_bound_duplicate@W4ZydisRegister_@@@?$_Tree@V?$_Tmap_traits@W4ZydisRegister_@@W41@U?$less@W4ZydisRegister_@@@std@@V?$allocator@U?$pair@$$CBW4ZydisRegister_@@W41@@std@@@3@$0A@@std@@@std@@IEBA_NQEAU?$_Tree_node@U?$pair@$$CBW4ZydisRegister_@@W41@@std@@PEAX@1@AEBW4ZydisRegister_@@@Z
	??$_Maklocstr@D@std@@YAPEADPEBDPEADAEBU_Cvtvec@@@Z
	??$_Maklocstr@_W@std@@YAPEA_WPEBDPEA_WAEBU_Cvtvec@@@Z
	??$_Move_backward_unchecked@PEAV?$basic_string@DU?$char_traits@D@std@@V?$allocator@D@2@@std@@PEAV12@@std@@YAPEAV?$basic_string@DU?$char_traits@D@std@@V?$allocator@D@2@@0@PEAV10@00@Z
	??$_Move_backward_unchecked@PEAVInstruction@PLH@@PEAV12@@std@@YAPEAVInstruction@PLH@@PEAV12@00@Z
	??$_Move_construct_from@VFBAllocator@PLH@@@?$_Ptr_base@VFBAllocator@PLH@@@std@@IEAAX$$QEAV01@@Z
	??$_Move_unchecked@PEAV?$basic_string@DU?$char_traits@D@std@@V?$allocator@D@2@@std@@PEAV12@@std@@YAPEAV?$basic_string@DU?$char_traits@D@std@@V?$allocator@D@2@@0@PEAV10@00@Z
	??$_Move_unchecked@PEAV?$shared_ptr@VFBAllocator@PLH@@@std@@PEAV12@@std@@YAPEAV?$shared_ptr@VFBAllocator@PLH@@@0@PEAV10@00@Z
	??$_Move_unchecked@PEAVInstruction@PLH@@PEAV12@@std@@YAPEAVInstruction@PLH@@PEAV12@00@Z
	??$_Pocca@V?$allocator@D@std@@@std@@YAXAEAV?$allocator@D@0@AEBV10@@Z
	??$_Pocca@V?$allocator@E@std@@@std@@YAXAEAV?$allocator@E@0@AEBV10@@Z
	??$_Pocca@V?$allocator@VInstruction@PLH@@@std@@@std@@YAXAEAV?$allocator@VInstruction@PLH@@@0@AEBV10@@Z
	??$_Pocca@V?$allocator@W4OperandType@Instruction@PLH@@@std@@@std@@YAXAEAV?$allocator@W4OperandType@Instruction@PLH@@@0@AEBV10@@Z
	??$_Pocma@V?$allocator@D@std@@@std@@YAXAEAV?$allocator@D@0@0@Z
	??$_Pocma@V?$allocator@E@std@@@std@@YAXAEAV?$allocator@E@0@0@Z
	??$_Pocma@V?$allocator@VInstruction@PLH@@@std@@@std@@YAXAEAV?$allocator@VInstruction@PLH@@@0@0@Z
	??$_Pocma@V?$allocator@W4OperandType@Instruction@PLH@@@std@@@std@@YAXAEAV?$allocator@W4OperandType@Instruction@PLH@@@0@0@Z
	??$_Reallocate_for@V<lambda_66f57f934f28d61049862f64df852ff0>@@PEBD@?$basic_string@DU?$char_traits@D@std@@V?$allocator@D@2@@std@@AEAAAEAV01@_KV<lambda_66f57f934f28d61049862f64df852ff0>@@PEBD@Z
	??$_Reallocate_grow_by@V<lambda_65e615be2a453ca0576c979606f46740>@@PEBD_K@?$basic_string@DU?$char_traits@D@std@@V?$allocator@D@2@@std@@AEAAAEAV01@_KV<lambda_65e615be2a453ca0576c979606f46740>@@PEBD_K@Z
	??$_Reallocate_grow_by@V<lambda_f3a66ab6a0570788f31503db83886f49>@@_KPEBD_K@?$basic_string@DU?$char_traits@D@std@@V?$allocator@D@2@@std@@AEAAAEAV01@_KV<lambda_f3a66ab6a0570788f31503db83886f49>@@_KPEBD2@Z
	??$_Refancy_maybe_null@PEAV?$shared_ptr@VFBAllocator@PLH@@@std@@$0A@@std@@YAPEAV?$shared_ptr@VFBAllocator@PLH@@@0@PEAV10@@Z
	??$_Refancy_maybe_null@PEAVInstruction@PLH@@$0A@@std@@YAPEAVInstruction@PLH@@PEAV12@@Z
	??$_Resize@U_Value_init_tag@std@@@?$vector@EV?$allocator@E@std@@@std@@AEAAX_KAEBU_Value_init_tag@1@@Z
	??$_Resize_reallocate@U_Value_init_tag@std@@@?$vector@EV?$allocator@E@std@@@std@@AEAAX_KAEBU_Value_init_tag@1@@Z
	??$_Seek_wrapped@PEB_WAEAPEB_W@std@@YAXAEAPEB_W0@Z
	??$_Seek_wrapped@V?$_Vector_const_iterator@V?$_Vector_val@U?$_Simple_types@VInstruction@PLH@@@std@@@std@@@std@@PEBVInstruction@PLH@@@std@@YAXAEAV?$_Vector_const_iterator@V?$_Vector_val@U?$_Simple_types@VInstruction@PLH@@@std@@@std@@@0@$$QEAPEBVInstruction@PLH@@@Z
	??$_Seek_wrapped@V?$_Vector_iterator@V?$_Vector_val@U?$_Simple_types@V?$shared_ptr@VFBAllocator@PLH@@@std@@@std@@@std@@@std@@AEAPEAV?$shared_ptr@VFBAllocator@PLH@@@2@@std@@YAXAEAV?$_Vector_iterator@V?$_Vector_val@U?$_Simple_types@V?$shared_ptr@VFBAllocator@PLH@@@std@@@std@@@std@@@0@AEAPEAV?$shared_ptr@VFBAllocator@PLH@@@0@@Z
	??$_Seek_wrapped@V?$_Vector_iterator@V?$_Vector_val@U?$_Simple_types@VInstruction@PLH@@@std@@@std@@@std@@AEAPEAVInstruction@PLH@@@std@@YAXAEAV?$_Vector_iterator@V?$_Vector_val@U?$_Simple_types@VInstruction@PLH@@@std@@@std@@@0@AEAPEAVInstruction@PLH@@@Z
	??$_Seek_wrapped@V?$_Vector_iterator@V?$_Vector_val@U?$_Simple_types@VInstruction@PLH@@@std@@@std@@@std@@PEAVInstruction@PLH@@@std@@YAXAEAV?$_Vector_iterator@V?$_Vector_val@U?$_Simple_types@VInstruction@PLH@@@std@@@std@@@0@$$QEAPEAVInstruction@PLH@@@Z
	??$_Seek_wrapped@V?$ostream_iterator@V?$basic_string@DU?$char_traits@D@std@@V?$allocator@D@2@@std@@DU?$char_traits@D@2@@std@@V12@@std@@YAXAEAV?$ostream_iterator@V?$basic_string@DU?$char_traits@D@std@@V?$allocator@D@2@@std@@DU?$char_traits@D@2@@0@$$QEAV10@@Z
	??$_Set_ptr_rep_and_enable_shared@VFBAllocator@PLH@@@?$shared_ptr@VFBAllocator@PLH@@@std@@AEAAXQEAVFBAllocator@PLH@@QEAV_Ref_count_base@1@@Z
	??$_Stringoid_from_Source@_WU?$char_traits@_W@std@@V?$allocator@_W@2@@filesystem@std@@YA?A_PAEBV?$basic_string@_WU?$char_traits@_W@std@@V?$allocator@_W@2@@1@@Z
	??$_To_address@PEAE@std@@YA?A_PAEBQEAE@Z
	??$_To_address@PEAVEffect@@@std@@YA?A_PAEBQEAVEffect@@@Z
	??$_To_address@PEAW4OperandType@Instruction@PLH@@@std@@YA?A_PAEBQEAW4OperandType@Instruction@PLH@@@Z
	??$_To_address@PEAW4TypeId@_abi_1_10@asmjit@@@std@@YA?A_PAEBQEAW4TypeId@_abi_1_10@asmjit@@@Z
	??$_To_address@PEBE@std@@YA?A_PAEBQEBE@Z
	??$_Traits_compare@U?$char_traits@D@std@@@std@@YAHQEBD_K01@Z
	??$_Traits_equal@U?$char_traits@D@std@@@std@@YA_NQEBD_K01@Z
	??$_Traits_find@U?$char_traits@D@std@@@std@@YA_KQEBD_K101@Z
	??$_Traits_find_ch@U?$char_traits@D@std@@@std@@YA_KQEBD_K1D@Z
	??$_Try_emplace@AEBG$$V@?$map@G_KU?$less@G@std@@V?$allocator@U?$pair@$$CBG_K@std@@@2@@std@@AEAA?AU?$pair@PEAU?$_Tree_node@U?$pair@$$CBG_K@std@@PEAX@std@@_N@1@AEBG@Z
	??$_Try_emplace@_K$$V@?$_Hash@V?$_Umap_traits@_KV?$shared_ptr@VFBAllocator@PLH@@@std@@V?$_Uhash_compare@_KU?$hash@_K@std@@U?$equal_to@_K@2@@2@V?$allocator@U?$pair@$$CB_KV?$shared_ptr@VFBAllocator@PLH@@@std@@@std@@@2@$0A@@std@@@std@@IEAA?AU?$pair@PEAU?$_List_node@U?$pair@$$CB_KV?$shared_ptr@VFBAllocator@PLH@@@std@@@std@@PEAX@std@@_N@1@$$QEA_K@Z
	??$_Tuple_get@$0A@$$QEA_K@std@@YA$$QEA_P$$QEAV?$tuple@$$QEA_K@0@@Z
	??$_Tuple_get@$0A@AEBG@std@@YA$$QEA_P$$QEAV?$tuple@AEBG@0@@Z
	??$_UIntegral_to_buff@DI@std@@YAPEADPEADI@Z
	??$_UIntegral_to_string@DI@std@@YA?AV?$basic_string@DU?$char_traits@D@std@@V?$allocator@D@2@@0@I@Z
	??$_Unaligned_load@I@filesystem@std@@YAIPEBX@Z
	??$_Unfancy@D@std@@YAPEADPEAD@Z
	??$_Unfancy@E@std@@YAPEAEPEAE@Z
	??$_Unfancy@UError@PLH@@@std@@YAPEAUError@PLH@@PEAU12@@Z
	??$_Unfancy@V?$basic_string@DU?$char_traits@D@std@@V?$allocator@D@2@@std@@@std@@YAPEAV?$basic_string@DU?$char_traits@D@std@@V?$allocator@D@2@@0@PEAV10@@Z
	??$_Unfancy@V?$shared_ptr@VFBAllocator@PLH@@@std@@@std@@YAPEAV?$shared_ptr@VFBAllocator@PLH@@@0@PEAV10@@Z
	??$_Unfancy@VEffect@@@std@@YAPEAVEffect@@PEAV1@@Z
	??$_Unfancy@VInstruction@PLH@@@std@@YAPEAVInstruction@PLH@@PEAV12@@Z
	??$_Unfancy@VReg@x86@_abi_1_10@asmjit@@@std@@YAPEAVReg@x86@_abi_1_10@asmjit@@PEAV1234@@Z
	??$_Unfancy@W4OperandType@Instruction@PLH@@@std@@YAPEAW4OperandType@Instruction@PLH@@PEAW4123@@Z
	??$_Unfancy@W4TypeId@_abi_1_10@asmjit@@@std@@YAPEAW4TypeId@_abi_1_10@asmjit@@PEAW4123@@Z
	??$_Unfancy@_W@std@@YAPEA_WPEA_W@Z
	??$_Unfancy_maybe_null@E@std@@YAPEAEPEAE@Z
	??$_Unfancy_maybe_null@V?$basic_string@DU?$char_traits@D@std@@V?$allocator@D@2@@std@@@std@@YAPEAV?$basic_string@DU?$char_traits@D@std@@V?$allocator@D@2@@0@PEAV10@@Z
	??$_Unfancy_maybe_null@V?$shared_ptr@VFBAllocator@PLH@@@std@@@std@@YAPEAV?$shared_ptr@VFBAllocator@PLH@@@0@PEAV10@@Z
	??$_Unfancy_maybe_null@VInstruction@PLH@@@std@@YAPEAVInstruction@PLH@@PEAV12@@Z
	??$_Unfancy_maybe_null@W4TypeId@_abi_1_10@asmjit@@@std@@YAPEAW4TypeId@_abi_1_10@asmjit@@PEAW4123@@Z
	??$_Uninitialized_copy@PEAEPEAEV?$allocator@E@std@@@std@@YAPEAEPEAE00AEAV?$allocator@E@0@@Z
	??$_Uninitialized_copy@PEAVInstruction@PLH@@PEAV12@V?$allocator@VInstruction@PLH@@@std@@@std@@YAPEAVInstruction@PLH@@PEAV12@00AEAV?$allocator@VInstruction@PLH@@@0@@Z
	??$_Uninitialized_copy@PEAW4OperandType@Instruction@PLH@@PEAW4123@V?$allocator@W4OperandType@Instruction@PLH@@@std@@@std@@YAPEAW4OperandType@Instruction@PLH@@PEAW4123@00AEAV?$allocator@W4OperandType@Instruction@PLH@@@0@@Z
	??$_Uninitialized_copy@PEBEPEBEV?$allocator@E@std@@@std@@YAPEAEPEBE0PEAEAEAV?$allocator@E@0@@Z
	??$_Uninitialized_copy@PEBVInstruction@PLH@@PEBV12@V?$allocator@VInstruction@PLH@@@std@@@std@@YAPEAVInstruction@PLH@@PEBV12@0PEAV12@AEAV?$allocator@VInstruction@PLH@@@0@@Z
	??$_Uninitialized_copy_n@PEAEV?$allocator@E@std@@@std@@YAPEAEPEAE_K0AEAV?$allocator@E@0@@Z
	??$_Uninitialized_copy_n@PEAVInstruction@PLH@@V?$allocator@VInstruction@PLH@@@std@@@std@@YAPEAVInstruction@PLH@@PEAV12@_K0AEAV?$allocator@VInstruction@PLH@@@0@@Z
	??$_Uninitialized_copy_n@PEAW4OperandType@Instruction@PLH@@V?$allocator@W4OperandType@Instruction@PLH@@@std@@@std@@YAPEAW4OperandType@Instruction@PLH@@PEAW4123@_K0AEAV?$allocator@W4OperandType@Instruction@PLH@@@0@@Z
	??$_Uninitialized_copy_n@PEBV?$basic_string@DU?$char_traits@D@std@@V?$allocator@D@2@@std@@V?$allocator@V?$basic_string@DU?$char_traits@D@std@@V?$allocator@D@2@@std@@@2@@std@@YAPEAV?$basic_string@DU?$char_traits@D@std@@V?$allocator@D@2@@0@PEBV10@_KPEAV10@AEAV?$allocator@V?$basic_string@DU?$char_traits@D@std@@V?$allocator@D@2@@std@@@0@@Z
	??$_Uninitialized_move@PEAEV?$allocator@E@std@@@std@@YAPEAEQEAE0PEAEAEAV?$allocator@E@0@@Z
	??$_Uninitialized_move@PEAUError@PLH@@V?$allocator@UError@PLH@@@std@@@std@@YAPEAUError@PLH@@QEAU12@0PEAU12@AEAV?$allocator@UError@PLH@@@0@@Z
	??$_Uninitialized_move@PEAV?$basic_string@DU?$char_traits@D@std@@V?$allocator@D@2@@std@@V?$allocator@V?$basic_string@DU?$char_traits@D@std@@V?$allocator@D@2@@std@@@2@@std@@YAPEAV?$basic_string@DU?$char_traits@D@std@@V?$allocator@D@2@@0@QEAV10@0PEAV10@AEAV?$allocator@V?$basic_string@DU?$char_traits@D@std@@V?$allocator@D@2@@std@@@0@@Z
	??$_Uninitialized_move@PEAV?$shared_ptr@VFBAllocator@PLH@@@std@@V?$allocator@V?$shared_ptr@VFBAllocator@PLH@@@std@@@2@@std@@YAPEAV?$shared_ptr@VFBAllocator@PLH@@@0@QEAV10@0PEAV10@AEAV?$allocator@V?$shared_ptr@VFBAllocator@PLH@@@std@@@0@@Z
	??$_Uninitialized_move@PEAVEffect@@V?$allocator@VEffect@@@std@@@std@@YAPEAVEffect@@QEAV1@0PEAV1@AEAV?$allocator@VEffect@@@0@@Z
	??$_Uninitialized_move@PEAVInstruction@PLH@@V?$allocator@VInstruction@PLH@@@std@@@std@@YAPEAVInstruction@PLH@@QEAV12@0PEAV12@AEAV?$allocator@VInstruction@PLH@@@0@@Z
	??$_Uninitialized_move@PEAVReg@x86@_abi_1_10@asmjit@@V?$allocator@VReg@x86@_abi_1_10@asmjit@@@std@@@std@@YAPEAVReg@x86@_abi_1_10@asmjit@@QEAV1234@0PEAV1234@AEAV?$allocator@VReg@x86@_abi_1_10@asmjit@@@0@@Z
	??$_Uninitialized_move@PEAW4OperandType@Instruction@PLH@@V?$allocator@W4OperandType@Instruction@PLH@@@std@@@std@@YAPEAW4OperandType@Instruction@PLH@@QEAW4123@0PEAW4123@AEAV?$allocator@W4OperandType@Instruction@PLH@@@0@@Z
	??$_Uninitialized_move@PEAW4TypeId@_abi_1_10@asmjit@@V?$allocator@W4TypeId@_abi_1_10@asmjit@@@std@@@std@@YAPEAW4TypeId@_abi_1_10@asmjit@@QEAW4123@0PEAW4123@AEAV?$allocator@W4TypeId@_abi_1_10@asmjit@@@0@@Z
	??$_Uninitialized_value_construct_n@V?$allocator@E@std@@@std@@YAPEAEPEAE_KAEAV?$allocator@E@0@@Z
	??$_Zero_range@PEAE@std@@YAPEAEQEAE0@Z
	??$add@_K@JitRuntime@_abi_1_10@asmjit@@QEAAIPEA_KPEAVCodeHolder@12@@Z
	??$addressof@$$CBV?$_List_val@U?$_List_simple_types@U?$pair@$$CB_KV?$shared_ptr@VFBAllocator@PLH@@@std@@@std@@@std@@@std@@@std@@YAPEBV?$_List_val@U?$_List_simple_types@U?$pair@$$CB_KV?$shared_ptr@VFBAllocator@PLH@@@std@@@std@@@std@@@0@AEBV10@@Z
	??$addressof@$$CBV?$_List_val@U?$_List_simple_types@U?$pair@$$CB_KV?$vector@VInstruction@PLH@@V?$allocator@VInstruction@PLH@@@std@@@std@@@std@@@std@@@std@@@std@@YAPEBV?$_List_val@U?$_List_simple_types@U?$pair@$$CB_KV?$vector@VInstruction@PLH@@V?$allocator@VInstruction@PLH@@@std@@@std@@@std@@@std@@@0@AEBV10@@Z
	??$addressof@$$CBV?$_List_val@U?$_List_simple_types@UAVehHookImpEntry@PLH@@@std@@@std@@@std@@YAPEBV?$_List_val@U?$_List_simple_types@UAVehHookImpEntry@PLH@@@std@@@0@AEBV10@@Z
	??$addressof@$$CBV?$_Tree_val@U?$_Tree_simple_types@U?$pair@$$CBG_K@std@@@std@@@std@@@std@@YAPEBV?$_Tree_val@U?$_Tree_simple_types@U?$pair@$$CBG_K@std@@@std@@@0@AEBV10@@Z
	??$addressof@$$CBV?$_Tree_val@U?$_Tree_simple_types@U?$pair@$$CBV?$basic_string@DU?$char_traits@D@std@@V?$allocator@D@2@@std@@V12@@std@@@std@@@std@@@std@@YAPEBV?$_Tree_val@U?$_Tree_simple_types@U?$pair@$$CBV?$basic_string@DU?$char_traits@D@std@@V?$allocator@D@2@@std@@V12@@std@@@std@@@0@AEBV10@@Z
	??$addressof@$$CBV?$_Tree_val@U?$_Tree_simple_types@U?$pair@$$CBW4ZydisRegisterClass_@@W4ZydisRegister_@@@std@@@std@@@std@@@std@@YAPEBV?$_Tree_val@U?$_Tree_simple_types@U?$pair@$$CBW4ZydisRegisterClass_@@W4ZydisRegister_@@@std@@@std@@@0@AEBV10@@Z
	??$addressof@$$CBV?$_Tree_val@U?$_Tree_simple_types@U?$pair@$$CBW4ZydisRegister_@@W41@@std@@@std@@@std@@@std@@YAPEBV?$_Tree_val@U?$_Tree_simple_types@U?$pair@$$CBW4ZydisRegister_@@W41@@std@@@std@@@0@AEBV10@@Z
	??$addressof@$$CBV?$_Tree_val@U?$_Tree_simple_types@V?$basic_string@DU?$char_traits@D@std@@V?$allocator@D@2@@std@@@std@@@std@@@std@@YAPEBV?$_Tree_val@U?$_Tree_simple_types@V?$basic_string@DU?$char_traits@D@std@@V?$allocator@D@2@@std@@@std@@@0@AEBV10@@Z
	??$addressof@$$CBV?$_Vector_val@U?$_Simple_types@V?$basic_string@DU?$char_traits@D@std@@V?$allocator@D@2@@std@@@std@@@std@@@std@@YAPEBV?$_Vector_val@U?$_Simple_types@V?$basic_string@DU?$char_traits@D@std@@V?$allocator@D@2@@std@@@std@@@0@AEBV10@@Z
	??$addressof@$$CBV?$_Vector_val@U?$_Simple_types@VInstruction@PLH@@@std@@@std@@@std@@YAPEBV?$_Vector_val@U?$_Simple_types@VInstruction@PLH@@@std@@@0@AEBV10@@Z
	??$addressof@$$CBV?$basic_string@DU?$char_traits@D@std@@V?$allocator@D@2@@std@@@std@@YAPEBV?$basic_string@DU?$char_traits@D@std@@V?$allocator@D@2@@0@AEBV10@@Z
	??$addressof@$$CBV?$vector@EV?$allocator@E@std@@@std@@@std@@YAPEBV?$vector@EV?$allocator@E@std@@@0@AEBV10@@Z
	??$addressof@$$CBV?$vector@VInstruction@PLH@@V?$allocator@VInstruction@PLH@@@std@@@std@@@std@@YAPEBV?$vector@VInstruction@PLH@@V?$allocator@VInstruction@PLH@@@std@@@0@AEBV10@@Z
	??$addressof@$$CBV?$vector@W4OperandType@Instruction@PLH@@V?$allocator@W4OperandType@Instruction@PLH@@@std@@@std@@@std@@YAPEBV?$vector@W4OperandType@Instruction@PLH@@V?$allocator@W4OperandType@Instruction@PLH@@@std@@@0@AEBV10@@Z
	??$addressof@D@std@@YAPEADAEAD@Z
	??$addressof@PEAD@std@@YAPEAPEADAEAPEAD@Z
	??$addressof@PEAU?$_List_node@U?$pair@$$CB_KV?$shared_ptr@VFBAllocator@PLH@@@std@@@std@@PEAX@std@@@std@@YAPEAPEAU?$_List_node@U?$pair@$$CB_KV?$shared_ptr@VFBAllocator@PLH@@@std@@@std@@PEAX@0@AEAPEAU10@@Z
	??$addressof@PEAU?$_List_node@U?$pair@$$CB_KV?$vector@VInstruction@PLH@@V?$allocator@VInstruction@PLH@@@std@@@std@@@std@@PEAX@std@@@std@@YAPEAPEAU?$_List_node@U?$pair@$$CB_KV?$vector@VInstruction@PLH@@V?$allocator@VInstruction@PLH@@@std@@@std@@@std@@PEAX@0@AEAPEAU10@@Z
	??$addressof@PEAU?$_List_node@UAVehHookImpEntry@PLH@@PEAX@std@@@std@@YAPEAPEAU?$_List_node@UAVehHookImpEntry@PLH@@PEAX@0@AEAPEAU10@@Z
	??$addressof@PEAU?$_Tree_node@U?$pair@$$CBG_K@std@@PEAX@std@@@std@@YAPEAPEAU?$_Tree_node@U?$pair@$$CBG_K@std@@PEAX@0@AEAPEAU10@@Z
	??$addressof@PEAU?$_Tree_node@U?$pair@$$CBV?$basic_string@DU?$char_traits@D@std@@V?$allocator@D@2@@std@@V12@@std@@PEAX@std@@@std@@YAPEAPEAU?$_Tree_node@U?$pair@$$CBV?$basic_string@DU?$char_traits@D@std@@V?$allocator@D@2@@std@@V12@@std@@PEAX@0@AEAPEAU10@@Z
	??$addressof@PEAU?$_Tree_node@U?$pair@$$CBW4ZydisRegisterClass_@@W4ZydisRegister_@@@std@@PEAX@std@@@std@@YAPEAPEAU?$_Tree_node@U?$pair@$$CBW4ZydisRegisterClass_@@W4ZydisRegister_@@@std@@PEAX@0@AEAPEAU10@@Z
	??$addressof@PEAU?$_Tree_node@U?$pair@$$CBW4ZydisRegister_@@W41@@std@@PEAX@std@@@std@@YAPEAPEAU?$_Tree_node@U?$pair@$$CBW4ZydisRegister_@@W41@@std@@PEAX@0@AEAPEAU10@@Z
	??$addressof@PEAU?$_Tree_node@V?$basic_string@DU?$char_traits@D@std@@V?$allocator@D@2@@std@@PEAX@std@@@std@@YAPEAPEAU?$_Tree_node@V?$basic_string@DU?$char_traits@D@std@@V?$allocator@D@2@@std@@PEAX@0@AEAPEAU10@@Z
	??$addressof@PEA_W@std@@YAPEAPEA_WAEAPEA_W@Z
	??$addressof@U?$pair@$$CBG_K@std@@@std@@YAPEAU?$pair@$$CBG_K@0@AEAU10@@Z
	??$addressof@U?$pair@$$CBV?$basic_string@DU?$char_traits@D@std@@V?$allocator@D@2@@std@@V12@@std@@@std@@YAPEAU?$pair@$$CBV?$basic_string@DU?$char_traits@D@std@@V?$allocator@D@2@@std@@V12@@0@AEAU10@@Z
	??$addressof@U?$pair@$$CBW4ZydisRegisterClass_@@W4ZydisRegister_@@@std@@@std@@YAPEAU?$pair@$$CBW4ZydisRegisterClass_@@W4ZydisRegister_@@@0@AEAU10@@Z
	??$addressof@U?$pair@$$CBW4ZydisRegister_@@W41@@std@@@std@@YAPEAU?$pair@$$CBW4ZydisRegister_@@W41@@0@AEAU10@@Z
	??$addressof@U?$pair@$$CB_KV?$shared_ptr@VFBAllocator@PLH@@@std@@@std@@@std@@YAPEAU?$pair@$$CB_KV?$shared_ptr@VFBAllocator@PLH@@@std@@@0@AEAU10@@Z
	??$addressof@U?$pair@$$CB_KV?$vector@VInstruction@PLH@@V?$allocator@VInstruction@PLH@@@std@@@std@@@std@@@std@@YAPEAU?$pair@$$CB_KV?$vector@VInstruction@PLH@@V?$allocator@VInstruction@PLH@@@std@@@std@@@0@AEAU10@@Z
	??$addressof@UAVehHookImpEntry@PLH@@@std@@YAPEAUAVehHookImpEntry@PLH@@AEAU12@@Z
	??$addressof@V?$_List_unchecked_const_iterator@V?$_List_val@U?$_List_simple_types@UAVehHookImpEntry@PLH@@@std@@@std@@U_Iterator_base0@2@@std@@@std@@YAPEAV?$_List_unchecked_const_iterator@V?$_List_val@U?$_List_simple_types@UAVehHookImpEntry@PLH@@@std@@@std@@U_Iterator_base0@2@@0@AEAV10@@Z
	??$addressof@V?$_List_unchecked_iterator@V?$_List_val@U?$_List_simple_types@U?$pair@$$CB_KV?$shared_ptr@VFBAllocator@PLH@@@std@@@std@@@std@@@std@@@std@@@std@@YAPEAV?$_List_unchecked_iterator@V?$_List_val@U?$_List_simple_types@U?$pair@$$CB_KV?$shared_ptr@VFBAllocator@PLH@@@std@@@std@@@std@@@std@@@0@AEAV10@@Z
	??$addressof@V?$_List_unchecked_iterator@V?$_List_val@U?$_List_simple_types@U?$pair@$$CB_KV?$vector@VInstruction@PLH@@V?$allocator@VInstruction@PLH@@@std@@@std@@@std@@@std@@@std@@@std@@@std@@YAPEAV?$_List_unchecked_iterator@V?$_List_val@U?$_List_simple_types@U?$pair@$$CB_KV?$vector@VInstruction@PLH@@V?$allocator@VInstruction@PLH@@@std@@@std@@@std@@@std@@@std@@@0@AEAV10@@Z
	??$addressof@V?$_List_val@U?$_List_simple_types@U?$pair@$$CB_KV?$shared_ptr@VFBAllocator@PLH@@@std@@@std@@@std@@@std@@@std@@YAPEAV?$_List_val@U?$_List_simple_types@U?$pair@$$CB_KV?$shared_ptr@VFBAllocator@PLH@@@std@@@std@@@std@@@0@AEAV10@@Z
	??$addressof@V?$_List_val@U?$_List_simple_types@U?$pair@$$CB_KV?$vector@VInstruction@PLH@@V?$allocator@VInstruction@PLH@@@std@@@std@@@std@@@std@@@std@@@std@@YAPEAV?$_List_val@U?$_List_simple_types@U?$pair@$$CB_KV?$vector@VInstruction@PLH@@V?$allocator@VInstruction@PLH@@@std@@@std@@@std@@@std@@@0@AEAV10@@Z
	??$addressof@V?$_String_val@U?$_Simple_types@D@std@@@std@@@std@@YAPEAV?$_String_val@U?$_Simple_types@D@std@@@0@AEAV10@@Z
	??$addressof@V?$_String_val@U?$_Simple_types@_W@std@@@std@@@std@@YAPEAV?$_String_val@U?$_Simple_types@_W@std@@@0@AEAV10@@Z
	??$addressof@V?$_Tree_val@U?$_Tree_simple_types@U?$pair@$$CBG_K@std@@@std@@@std@@@std@@YAPEAV?$_Tree_val@U?$_Tree_simple_types@U?$pair@$$CBG_K@std@@@std@@@0@AEAV10@@Z
	??$addressof@V?$_Tree_val@U?$_Tree_simple_types@U?$pair@$$CBV?$basic_string@DU?$char_traits@D@std@@V?$allocator@D@2@@std@@V12@@std@@@std@@@std@@@std@@YAPEAV?$_Tree_val@U?$_Tree_simple_types@U?$pair@$$CBV?$basic_string@DU?$char_traits@D@std@@V?$allocator@D@2@@std@@V12@@std@@@std@@@0@AEAV10@@Z
	??$addressof@V?$_Tree_val@U?$_Tree_simple_types@U?$pair@$$CBW4ZydisRegisterClass_@@W4ZydisRegister_@@@std@@@std@@@std@@@std@@YAPEAV?$_Tree_val@U?$_Tree_simple_types@U?$pair@$$CBW4ZydisRegisterClass_@@W4ZydisRegister_@@@std@@@std@@@0@AEAV10@@Z
	??$addressof@V?$_Tree_val@U?$_Tree_simple_types@U?$pair@$$CBW4ZydisRegister_@@W41@@std@@@std@@@std@@@std@@YAPEAV?$_Tree_val@U?$_Tree_simple_types@U?$pair@$$CBW4ZydisRegister_@@W41@@std@@@std@@@0@AEAV10@@Z
	??$addressof@V?$_Tree_val@U?$_Tree_simple_types@V?$basic_string@DU?$char_traits@D@std@@V?$allocator@D@2@@std@@@std@@@std@@@std@@YAPEAV?$_Tree_val@U?$_Tree_simple_types@V?$basic_string@DU?$char_traits@D@std@@V?$allocator@D@2@@std@@@std@@@0@AEAV10@@Z
	??$addressof@V?$_Vector_val@U?$_Simple_types@V?$basic_string@DU?$char_traits@D@std@@V?$allocator@D@2@@std@@@std@@@std@@@std@@YAPEAV?$_Vector_val@U?$_Simple_types@V?$basic_string@DU?$char_traits@D@std@@V?$allocator@D@2@@std@@@std@@@0@AEAV10@@Z
	??$addressof@V?$_Vector_val@U?$_Simple_types@V?$shared_ptr@VFBAllocator@PLH@@@std@@@std@@@std@@@std@@YAPEAV?$_Vector_val@U?$_Simple_types@V?$shared_ptr@VFBAllocator@PLH@@@std@@@std@@@0@AEAV10@@Z
	??$addressof@V?$_Vector_val@U?$_Simple_types@VInstruction@PLH@@@std@@@std@@@std@@YAPEAV?$_Vector_val@U?$_Simple_types@VInstruction@PLH@@@std@@@0@AEAV10@@Z
	??$addressof@V?$basic_ostream@DU?$char_traits@D@std@@@std@@@std@@YAPEAV?$basic_ostream@DU?$char_traits@D@std@@@0@AEAV10@@Z
	??$addressof@V?$basic_string@DU?$char_traits@D@std@@V?$allocator@D@2@@std@@@std@@YAPEAV?$basic_string@DU?$char_traits@D@std@@V?$allocator@D@2@@0@AEAV10@@Z
	??$addressof@V?$basic_stringbuf@DU?$char_traits@D@std@@V?$allocator@D@2@@std@@@std@@YAPEAV?$basic_stringbuf@DU?$char_traits@D@std@@V?$allocator@D@2@@0@AEAV10@@Z
	??$addressof@V?$shared_ptr@VFBAllocator@PLH@@@std@@@std@@YAPEAV?$shared_ptr@VFBAllocator@PLH@@@0@AEAV10@@Z
	??$addressof@V?$vector@EV?$allocator@E@std@@@std@@@std@@YAPEAV?$vector@EV?$allocator@E@std@@@0@AEAV10@@Z
	??$addressof@V?$vector@VInstruction@PLH@@V?$allocator@VInstruction@PLH@@@std@@@std@@@std@@YAPEAV?$vector@VInstruction@PLH@@V?$allocator@VInstruction@PLH@@@std@@@0@AEAV10@@Z
	??$addressof@V?$vector@W4OperandType@Instruction@PLH@@V?$allocator@W4OperandType@Instruction@PLH@@@std@@@std@@@std@@YAPEAV?$vector@W4OperandType@Instruction@PLH@@V?$allocator@W4OperandType@Instruction@PLH@@@std@@@0@AEAV10@@Z
	??$addressof@VEffect@@@std@@YAPEAVEffect@@AEAV1@@Z
	??$addressof@VFBAllocator@PLH@@@std@@YAPEAVFBAllocator@PLH@@AEAV12@@Z
	??$addressof@VInstruction@PLH@@@std@@YAPEAVInstruction@PLH@@AEAV12@@Z
	??$addressof@VReg@x86@_abi_1_10@asmjit@@@std@@YAPEAVReg@x86@_abi_1_10@asmjit@@AEAV1234@@Z
	??$addressof@W4OperandType@Instruction@PLH@@@std@@YAPEAW4OperandType@Instruction@PLH@@AEAW4123@@Z
	??$addressof@W4TypeId@_abi_1_10@asmjit@@@std@@YAPEAW4TypeId@_abi_1_10@asmjit@@AEAW4123@@Z
	??$as@VGp@x86@_abi_1_10@asmjit@@@Operand_@_abi_1_10@asmjit@@QEAAAEAVGp@x86@12@XZ
	??$as@VOperand@_abi_1_10@asmjit@@@Operand_@_abi_1_10@asmjit@@QEAAAEAVOperand@12@XZ
	??$as@VXmm@x86@_abi_1_10@asmjit@@@Operand_@_abi_1_10@asmjit@@QEAAAEAVXmm@x86@12@XZ
	??$calculateRelativeDisplacement@H@Instruction@PLH@@SAH_K0E@Z
	??$calculateRelativeDisplacement@_J@Instruction@PLH@@SA_J_K0E@Z
	??$construct@E$$V@?$_Default_allocator_traits@V?$allocator@E@std@@@std@@SAXAEAV?$allocator@E@1@QEAE@Z
	??$construct@EAEAE@?$_Default_allocator_traits@V?$allocator@E@std@@@std@@SAXAEAV?$allocator@E@1@QEAEAEAE@Z
	??$construct@EAEBE@?$_Default_allocator_traits@V?$allocator@E@std@@@std@@SAXAEAV?$allocator@E@1@QEAEAEBE@Z
	??$construct@EE@?$_Default_allocator_traits@V?$allocator@E@std@@@std@@SAXAEAV?$allocator@E@1@QEAE$$QEAE@Z
	??$construct@U?$pair@$$CBG_K@std@@AEAU12@@?$_Default_allocator_traits@V?$allocator@U?$_Tree_node@U?$pair@$$CBG_K@std@@PEAX@std@@@std@@@std@@SAXAEAV?$allocator@U?$_Tree_node@U?$pair@$$CBG_K@std@@PEAX@std@@@1@QEAU?$pair@$$CBG_K@1@AEAU31@@Z
	??$construct@U?$pair@$$CBG_K@std@@AEBUpiecewise_construct_t@2@V?$tuple@AEBG@2@V?$tuple@$$V@2@@?$_Default_allocator_traits@V?$allocator@U?$_Tree_node@U?$pair@$$CBG_K@std@@PEAX@std@@@std@@@std@@SAXAEAV?$allocator@U?$_Tree_node@U?$pair@$$CBG_K@std@@PEAX@std@@@1@QEAU?$pair@$$CBG_K@1@AEBUpiecewise_construct_t@1@$$QEAV?$tuple@AEBG@1@$$QEAV?$tuple@$$V@1@@Z
	??$construct@U?$pair@$$CBV?$basic_string@DU?$char_traits@D@std@@V?$allocator@D@2@@std@@V12@@std@@AEBU12@@?$_Default_allocator_traits@V?$allocator@U?$_Tree_node@U?$pair@$$CBV?$basic_string@DU?$char_traits@D@std@@V?$allocator@D@2@@std@@V12@@std@@PEAX@std@@@std@@@std@@SAXAEAV?$allocator@U?$_Tree_node@U?$pair@$$CBV?$basic_string@DU?$char_traits@D@std@@V?$allocator@D@2@@std@@V12@@std@@PEAX@std@@@1@QEAU?$pair@$$CBV?$basic_string@DU?$char_traits@D@std@@V?$allocator@D@2@@std@@V12@@1@AEBU31@@Z
	??$construct@U?$pair@$$CBW4ZydisRegisterClass_@@W4ZydisRegister_@@@std@@AEBU12@@?$_Default_allocator_traits@V?$allocator@U?$_Tree_node@U?$pair@$$CBW4ZydisRegisterClass_@@W4ZydisRegister_@@@std@@PEAX@std@@@std@@@std@@SAXAEAV?$allocator@U?$_Tree_node@U?$pair@$$CBW4ZydisRegisterClass_@@W4ZydisRegister_@@@std@@PEAX@std@@@1@QEAU?$pair@$$CBW4ZydisRegisterClass_@@W4ZydisRegister_@@@1@AEBU31@@Z
	??$construct@U?$pair@$$CBW4ZydisRegister_@@W41@@std@@AEBU12@@?$_Default_allocator_traits@V?$allocator@U?$_Tree_node@U?$pair@$$CBW4ZydisRegister_@@W41@@std@@PEAX@std@@@std@@@std@@SAXAEAV?$allocator@U?$_Tree_node@U?$pair@$$CBW4ZydisRegister_@@W41@@std@@PEAX@std@@@1@QEAU?$pair@$$CBW4ZydisRegister_@@W41@@1@AEBU31@@Z
	??$construct@U?$pair@$$CB_KV?$shared_ptr@VFBAllocator@PLH@@@std@@@std@@AEBUpiecewise_construct_t@2@V?$tuple@$$QEA_K@2@V?$tuple@$$V@2@@?$_Default_allocator_traits@V?$allocator@U?$_List_node@U?$pair@$$CB_KV?$shared_ptr@VFBAllocator@PLH@@@std@@@std@@PEAX@std@@@std@@@std@@SAXAEAV?$allocator@U?$_List_node@U?$pair@$$CB_KV?$shared_ptr@VFBAllocator@PLH@@@std@@@std@@PEAX@std@@@1@QEAU?$pair@$$CB_KV?$shared_ptr@VFBAllocator@PLH@@@std@@@1@AEBUpiecewise_construct_t@1@$$QEAV?$tuple@$$QEA_K@1@$$QEAV?$tuple@$$V@1@@Z
	??$construct@U?$pair@$$CB_KV?$vector@VInstruction@PLH@@V?$allocator@VInstruction@PLH@@@std@@@std@@@std@@AEA_KAEAV?$vector@VInstruction@PLH@@V?$allocator@VInstruction@PLH@@@std@@@2@@?$_Default_allocator_traits@V?$allocator@U?$_List_node@U?$pair@$$CB_KV?$vector@VInstruction@PLH@@V?$allocator@VInstruction@PLH@@@std@@@std@@@std@@PEAX@std@@@std@@@std@@SAXAEAV?$allocator@U?$_List_node@U?$pair@$$CB_KV?$vector@VInstruction@PLH@@V?$allocator@VInstruction@PLH@@@std@@@std@@@std@@PEAX@std@@@1@QEAU?$pair@$$CB_KV?$vector@VInstruction@PLH@@V?$allocator@VInstruction@PLH@@@std@@@std@@@1@AEA_KAEAV?$vector@VInstruction@PLH@@V?$allocator@VInstruction@PLH@@@std@@@1@@Z
	??$construct@UAVehHookImpEntry@PLH@@AEBU12@@?$_Default_allocator_traits@V?$allocator@U?$_List_node@UAVehHookImpEntry@PLH@@PEAX@std@@@std@@@std@@SAXAEAV?$allocator@U?$_List_node@UAVehHookImpEntry@PLH@@PEAX@std@@@1@QEAUAVehHookImpEntry@PLH@@AEBU34@@Z
	??$construct@UError@PLH@@AEBU12@@?$_Default_allocator_traits@V?$allocator@UError@PLH@@@std@@@std@@SAXAEAV?$allocator@UError@PLH@@@1@QEAUError@PLH@@AEBU34@@Z
	??$construct@UError@PLH@@U12@@?$_Default_allocator_traits@V?$allocator@UError@PLH@@@std@@@std@@SAXAEAV?$allocator@UError@PLH@@@1@QEAUError@PLH@@$$QEAU34@@Z
	??$construct@V?$basic_string@DU?$char_traits@D@std@@V?$allocator@D@2@@std@@AEAV12@@?$_Default_allocator_traits@V?$allocator@V?$basic_string@DU?$char_traits@D@std@@V?$allocator@D@2@@std@@@std@@@std@@SAXAEAV?$allocator@V?$basic_string@DU?$char_traits@D@std@@V?$allocator@D@2@@std@@@1@QEAV?$basic_string@DU?$char_traits@D@std@@V?$allocator@D@2@@1@AEAV31@@Z
	??$construct@V?$basic_string@DU?$char_traits@D@std@@V?$allocator@D@2@@std@@AEAY08$$CBD@?$_Default_allocator_traits@V?$allocator@V?$basic_string@DU?$char_traits@D@std@@V?$allocator@D@2@@std@@@std@@@std@@SAXAEAV?$allocator@V?$basic_string@DU?$char_traits@D@std@@V?$allocator@D@2@@std@@@1@QEAV?$basic_string@DU?$char_traits@D@std@@V?$allocator@D@2@@1@AEAY08$$CBD@Z
	??$construct@V?$basic_string@DU?$char_traits@D@std@@V?$allocator@D@2@@std@@AEAY0BA@$$CBD@?$_Default_allocator_traits@V?$allocator@V?$basic_string@DU?$char_traits@D@std@@V?$allocator@D@2@@std@@@std@@@std@@SAXAEAV?$allocator@V?$basic_string@DU?$char_traits@D@std@@V?$allocator@D@2@@std@@@1@QEAV?$basic_string@DU?$char_traits@D@std@@V?$allocator@D@2@@1@AEAY0BA@$$CBD@Z
	??$construct@V?$basic_string@DU?$char_traits@D@std@@V?$allocator@D@2@@std@@AEAY0BG@$$CBD@?$_Default_allocator_traits@V?$allocator@V?$basic_string@DU?$char_traits@D@std@@V?$allocator@D@2@@std@@@std@@@std@@SAXAEAV?$allocator@V?$basic_string@DU?$char_traits@D@std@@V?$allocator@D@2@@std@@@1@QEAV?$basic_string@DU?$char_traits@D@std@@V?$allocator@D@2@@1@AEAY0BG@$$CBD@Z
	??$construct@V?$basic_string@DU?$char_traits@D@std@@V?$allocator@D@2@@std@@AEBV12@@?$_Default_allocator_traits@V?$allocator@U?$_Tree_node@V?$basic_string@DU?$char_traits@D@std@@V?$allocator@D@2@@std@@PEAX@std@@@std@@@std@@SAXAEAV?$allocator@U?$_Tree_node@V?$basic_string@DU?$char_traits@D@std@@V?$allocator@D@2@@std@@PEAX@std@@@1@QEAV?$basic_string@DU?$char_traits@D@std@@V?$allocator@D@2@@1@AEBV31@@Z
	??$construct@V?$basic_string@DU?$char_traits@D@std@@V?$allocator@D@2@@std@@AEBV12@@?$_Default_allocator_traits@V?$allocator@V?$basic_string@DU?$char_traits@D@std@@V?$allocator@D@2@@std@@@std@@@std@@SAXAEAV?$allocator@V?$basic_string@DU?$char_traits@D@std@@V?$allocator@D@2@@std@@@1@QEAV?$basic_string@DU?$char_traits@D@std@@V?$allocator@D@2@@1@AEBV31@@Z
	??$construct@V?$basic_string@DU?$char_traits@D@std@@V?$allocator@D@2@@std@@V12@@?$_Default_allocator_traits@V?$allocator@V?$basic_string@DU?$char_traits@D@std@@V?$allocator@D@2@@std@@@std@@@std@@SAXAEAV?$allocator@V?$basic_string@DU?$char_traits@D@std@@V?$allocator@D@2@@std@@@1@QEAV?$basic_string@DU?$char_traits@D@std@@V?$allocator@D@2@@1@$$QEAV31@@Z
	??$construct@V?$shared_ptr@VFBAllocator@PLH@@@std@@AEBV12@@?$_Default_allocator_traits@V?$allocator@V?$shared_ptr@VFBAllocator@PLH@@@std@@@std@@@std@@SAXAEAV?$allocator@V?$shared_ptr@VFBAllocator@PLH@@@std@@@1@QEAV?$shared_ptr@VFBAllocator@PLH@@@1@AEBV31@@Z
	??$construct@V?$shared_ptr@VFBAllocator@PLH@@@std@@V12@@?$_Default_allocator_traits@V?$allocator@V?$shared_ptr@VFBAllocator@PLH@@@std@@@std@@@std@@SAXAEAV?$allocator@V?$shared_ptr@VFBAllocator@PLH@@@std@@@1@QEAV?$shared_ptr@VFBAllocator@PLH@@@1@$$QEAV31@@Z
	??$construct@VEffect@@V1@@?$_Default_allocator_traits@V?$allocator@VEffect@@@std@@@std@@SAXAEAV?$allocator@VEffect@@@1@QEAVEffect@@$$QEAV3@@Z
	??$construct@VInstruction@PLH@@AEAV12@@?$_Default_allocator_traits@V?$allocator@VInstruction@PLH@@@std@@@std@@SAXAEAV?$allocator@VInstruction@PLH@@@1@QEAVInstruction@PLH@@AEAV34@@Z
	??$construct@VInstruction@PLH@@AEBV12@@?$_Default_allocator_traits@V?$allocator@VInstruction@PLH@@@std@@@std@@SAXAEAV?$allocator@VInstruction@PLH@@@1@QEAVInstruction@PLH@@AEBV34@@Z
	??$construct@VInstruction@PLH@@V12@@?$_Default_allocator_traits@V?$allocator@VInstruction@PLH@@@std@@@std@@SAXAEAV?$allocator@VInstruction@PLH@@@1@QEAVInstruction@PLH@@$$QEAV34@@Z
	??$construct@VReg@x86@_abi_1_10@asmjit@@AEBV1234@@?$_Default_allocator_traits@V?$allocator@VReg@x86@_abi_1_10@asmjit@@@std@@@std@@SAXAEAV?$allocator@VReg@x86@_abi_1_10@asmjit@@@1@QEAVReg@x86@_abi_1_10@asmjit@@AEBV3456@@Z
	??$construct@VReg@x86@_abi_1_10@asmjit@@V1234@@?$_Default_allocator_traits@V?$allocator@VReg@x86@_abi_1_10@asmjit@@@std@@@std@@SAXAEAV?$allocator@VReg@x86@_abi_1_10@asmjit@@@1@QEAVReg@x86@_abi_1_10@asmjit@@$$QEAV3456@@Z
	??$construct@W4OperandType@Instruction@PLH@@AEAW4123@@?$_Default_allocator_traits@V?$allocator@W4OperandType@Instruction@PLH@@@std@@@std@@SAXAEAV?$allocator@W4OperandType@Instruction@PLH@@@1@QEAW4OperandType@Instruction@PLH@@AEAW4345@@Z
	??$construct@W4OperandType@Instruction@PLH@@W4123@@?$_Default_allocator_traits@V?$allocator@W4OperandType@Instruction@PLH@@@std@@@std@@SAXAEAV?$allocator@W4OperandType@Instruction@PLH@@@1@QEAW4OperandType@Instruction@PLH@@$$QEAW4345@@Z
	??$construct@W4TypeId@_abi_1_10@asmjit@@W4123@@?$_Default_allocator_traits@V?$allocator@W4TypeId@_abi_1_10@asmjit@@@std@@@std@@SAXAEAV?$allocator@W4TypeId@_abi_1_10@asmjit@@@1@QEAW4TypeId@_abi_1_10@asmjit@@$$QEAW4345@@Z
	??$copy@V?$_Vector_iterator@V?$_Vector_val@U?$_Simple_types@V?$basic_string@DU?$char_traits@D@std@@V?$allocator@D@2@@std@@@std@@@std@@@std@@V?$ostream_iterator@V?$basic_string@DU?$char_traits@D@std@@V?$allocator@D@2@@std@@DU?$char_traits@D@2@@2@@std@@YA?AV?$ostream_iterator@V?$basic_string@DU?$char_traits@D@std@@V?$allocator@D@2@@std@@DU?$char_traits@D@2@@0@V?$_Vector_iterator@V?$_Vector_val@U?$_Simple_types@V?$basic_string@DU?$char_traits@D@std@@V?$allocator@D@2@@std@@@std@@@std@@@0@0V10@@Z
	??$destroy@U?$pair@$$CBG_K@std@@@?$_Default_allocator_traits@V?$allocator@U?$_Tree_node@U?$pair@$$CBG_K@std@@PEAX@std@@@std@@@std@@SAXAEAV?$allocator@U?$_Tree_node@U?$pair@$$CBG_K@std@@PEAX@std@@@1@QEAU?$pair@$$CBG_K@1@@Z
	??$destroy@U?$pair@$$CBV?$basic_string@DU?$char_traits@D@std@@V?$allocator@D@2@@std@@V12@@std@@@?$_Default_allocator_traits@V?$allocator@U?$_Tree_node@U?$pair@$$CBV?$basic_string@DU?$char_traits@D@std@@V?$allocator@D@2@@std@@V12@@std@@PEAX@std@@@std@@@std@@SAXAEAV?$allocator@U?$_Tree_node@U?$pair@$$CBV?$basic_string@DU?$char_traits@D@std@@V?$allocator@D@2@@std@@V12@@std@@PEAX@std@@@1@QEAU?$pair@$$CBV?$basic_string@DU?$char_traits@D@std@@V?$allocator@D@2@@std@@V12@@1@@Z
	??$destroy@U?$pair@$$CBW4ZydisRegisterClass_@@W4ZydisRegister_@@@std@@@?$_Default_allocator_traits@V?$allocator@U?$_Tree_node@U?$pair@$$CBW4ZydisRegisterClass_@@W4ZydisRegister_@@@std@@PEAX@std@@@std@@@std@@SAXAEAV?$allocator@U?$_Tree_node@U?$pair@$$CBW4ZydisRegisterClass_@@W4ZydisRegister_@@@std@@PEAX@std@@@1@QEAU?$pair@$$CBW4ZydisRegisterClass_@@W4ZydisRegister_@@@1@@Z
	??$destroy@U?$pair@$$CBW4ZydisRegister_@@W41@@std@@@?$_Default_allocator_traits@V?$allocator@U?$_Tree_node@U?$pair@$$CBW4ZydisRegister_@@W41@@std@@PEAX@std@@@std@@@std@@SAXAEAV?$allocator@U?$_Tree_node@U?$pair@$$CBW4ZydisRegister_@@W41@@std@@PEAX@std@@@1@QEAU?$pair@$$CBW4ZydisRegister_@@W41@@1@@Z
	??$destroy@U?$pair@$$CB_KV?$shared_ptr@VFBAllocator@PLH@@@std@@@std@@@?$_Default_allocator_traits@V?$allocator@U?$_List_node@U?$pair@$$CB_KV?$shared_ptr@VFBAllocator@PLH@@@std@@@std@@PEAX@std@@@std@@@std@@SAXAEAV?$allocator@U?$_List_node@U?$pair@$$CB_KV?$shared_ptr@VFBAllocator@PLH@@@std@@@std@@PEAX@std@@@1@QEAU?$pair@$$CB_KV?$shared_ptr@VFBAllocator@PLH@@@std@@@1@@Z
	??$destroy@U?$pair@$$CB_KV?$vector@VInstruction@PLH@@V?$allocator@VInstruction@PLH@@@std@@@std@@@std@@@?$_Default_allocator_traits@V?$allocator@U?$_List_node@U?$pair@$$CB_KV?$vector@VInstruction@PLH@@V?$allocator@VInstruction@PLH@@@std@@@std@@@std@@PEAX@std@@@std@@@std@@SAXAEAV?$allocator@U?$_List_node@U?$pair@$$CB_KV?$vector@VInstruction@PLH@@V?$allocator@VInstruction@PLH@@@std@@@std@@@std@@PEAX@std@@@1@QEAU?$pair@$$CB_KV?$vector@VInstruction@PLH@@V?$allocator@VInstruction@PLH@@@std@@@std@@@1@@Z
	??$destroy@UAVehHookImpEntry@PLH@@@?$_Default_allocator_traits@V?$allocator@U?$_List_node@UAVehHookImpEntry@PLH@@PEAX@std@@@std@@@std@@SAXAEAV?$allocator@U?$_List_node@UAVehHookImpEntry@PLH@@PEAX@std@@@1@QEAUAVehHookImpEntry@PLH@@@Z
	??$destroy@UError@PLH@@@?$_Default_allocator_traits@V?$allocator@UError@PLH@@@std@@@std@@SAXAEAV?$allocator@UError@PLH@@@1@QEAUError@PLH@@@Z
	??$destroy@V?$basic_string@DU?$char_traits@D@std@@V?$allocator@D@2@@std@@@?$_Default_allocator_traits@V?$allocator@U?$_Tree_node@V?$basic_string@DU?$char_traits@D@std@@V?$allocator@D@2@@std@@PEAX@std@@@std@@@std@@SAXAEAV?$allocator@U?$_Tree_node@V?$basic_string@DU?$char_traits@D@std@@V?$allocator@D@2@@std@@PEAX@std@@@1@QEAV?$basic_string@DU?$char_traits@D@std@@V?$allocator@D@2@@1@@Z
	??$destroy@V?$basic_string@DU?$char_traits@D@std@@V?$allocator@D@2@@std@@@?$_Default_allocator_traits@V?$allocator@V?$basic_string@DU?$char_traits@D@std@@V?$allocator@D@2@@std@@@std@@@std@@SAXAEAV?$allocator@V?$basic_string@DU?$char_traits@D@std@@V?$allocator@D@2@@std@@@1@QEAV?$basic_string@DU?$char_traits@D@std@@V?$allocator@D@2@@1@@Z
	??$destroy@V?$shared_ptr@VFBAllocator@PLH@@@std@@@?$_Default_allocator_traits@V?$allocator@V?$shared_ptr@VFBAllocator@PLH@@@std@@@std@@@std@@SAXAEAV?$allocator@V?$shared_ptr@VFBAllocator@PLH@@@std@@@1@QEAV?$shared_ptr@VFBAllocator@PLH@@@1@@Z
	??$destroy@VEffect@@@?$_Default_allocator_traits@V?$allocator@VEffect@@@std@@@std@@SAXAEAV?$allocator@VEffect@@@1@QEAVEffect@@@Z
	??$destroy@VInstruction@PLH@@@?$_Default_allocator_traits@V?$allocator@VInstruction@PLH@@@std@@@std@@SAXAEAV?$allocator@VInstruction@PLH@@@1@QEAVInstruction@PLH@@@Z
	??$distance@PEAE@std@@YA_JPEAE0@Z
	??$distance@PEAVInstruction@PLH@@@std@@YA_JPEAVInstruction@PLH@@0@Z
	??$distance@PEBV?$basic_string@DU?$char_traits@D@std@@V?$allocator@D@2@@std@@@std@@YA_JPEBV?$basic_string@DU?$char_traits@D@std@@V?$allocator@D@2@@0@0@Z
	??$emplace@AEA_KAEAV?$vector@VInstruction@PLH@@V?$allocator@VInstruction@PLH@@@std@@@std@@@?$_Hash@V?$_Umap_traits@_KV?$vector@VInstruction@PLH@@V?$allocator@VInstruction@PLH@@@std@@@std@@V?$_Uhash_compare@_KU?$hash@_K@std@@U?$equal_to@_K@2@@2@V?$allocator@U?$pair@$$CB_KV?$vector@VInstruction@PLH@@V?$allocator@VInstruction@PLH@@@std@@@std@@@std@@@2@$0A@@std@@@std@@QEAA?AU?$pair@V?$_List_iterator@V?$_List_val@U?$_List_simple_types@U?$pair@$$CB_KV?$vector@VInstruction@PLH@@V?$allocator@VInstruction@PLH@@@std@@@std@@@std@@@std@@@std@@@std@@_N@1@AEA_KAEAV?$vector@VInstruction@PLH@@V?$allocator@VInstruction@PLH@@@std@@@1@@Z
	??$emplace@AEBUAVehHookImpEntry@PLH@@@?$_Hash@V?$_Uset_traits@UAVehHookImpEntry@PLH@@V?$_Uhash_compare@UAVehHookImpEntry@PLH@@U?$hash@UAVehHookImpEntry@PLH@@@std@@U?$equal_to@UAVehHookImpEntry@PLH@@@4@@std@@V?$allocator@UAVehHookImpEntry@PLH@@@4@$0A@@std@@@std@@QEAA?AU?$pair@V?$_List_const_iterator@V?$_List_val@U?$_List_simple_types@UAVehHookImpEntry@PLH@@@std@@@std@@@std@@_N@1@AEBUAVehHookImpEntry@PLH@@@Z
	??$emplace@AEBVInstruction@PLH@@@?$vector@VInstruction@PLH@@V?$allocator@VInstruction@PLH@@@std@@@std@@QEAA?AV?$_Vector_iterator@V?$_Vector_val@U?$_Simple_types@VInstruction@PLH@@@std@@@std@@@1@V?$_Vector_const_iterator@V?$_Vector_val@U?$_Simple_types@VInstruction@PLH@@@std@@@std@@@1@AEBVInstruction@PLH@@@Z
	??$emplace_back@AEAV?$basic_string@DU?$char_traits@D@std@@V?$allocator@D@2@@std@@@?$vector@V?$basic_string@DU?$char_traits@D@std@@V?$allocator@D@2@@std@@V?$allocator@V?$basic_string@DU?$char_traits@D@std@@V?$allocator@D@2@@std@@@2@@std@@QEAA?A_TAEAV?$basic_string@DU?$char_traits@D@std@@V?$allocator@D@2@@1@@Z
	??$emplace_back@AEAW4OperandType@Instruction@PLH@@@?$vector@W4OperandType@Instruction@PLH@@V?$allocator@W4OperandType@Instruction@PLH@@@std@@@std@@QEAA?A_TAEAW4OperandType@Instruction@PLH@@@Z
	??$emplace_back@AEAY08$$CBD@?$vector@V?$basic_string@DU?$char_traits@D@std@@V?$allocator@D@2@@std@@V?$allocator@V?$basic_string@DU?$char_traits@D@std@@V?$allocator@D@2@@std@@@2@@std@@QEAA?A_TAEAY08$$CBD@Z
	??$emplace_back@AEAY0BA@$$CBD@?$vector@V?$basic_string@DU?$char_traits@D@std@@V?$allocator@D@2@@std@@V?$allocator@V?$basic_string@DU?$char_traits@D@std@@V?$allocator@D@2@@std@@@2@@std@@QEAA?A_TAEAY0BA@$$CBD@Z
	??$emplace_back@AEAY0BG@$$CBD@?$vector@V?$basic_string@DU?$char_traits@D@std@@V?$allocator@D@2@@std@@V?$allocator@V?$basic_string@DU?$char_traits@D@std@@V?$allocator@D@2@@std@@@2@@std@@QEAA?A_TAEAY0BG@$$CBD@Z
	??$emplace_back@V?$basic_string@DU?$char_traits@D@std@@V?$allocator@D@2@@std@@@?$vector@V?$basic_string@DU?$char_traits@D@std@@V?$allocator@D@2@@std@@V?$allocator@V?$basic_string@DU?$char_traits@D@std@@V?$allocator@D@2@@std@@@2@@std@@QEAA?A_T$$QEAV?$basic_string@DU?$char_traits@D@std@@V?$allocator@D@2@@1@@Z
	??$emplace_back@VInstruction@PLH@@@?$vector@VInstruction@PLH@@V?$allocator@VInstruction@PLH@@@std@@@std@@QEAA?A_T$$QEAVInstruction@PLH@@@Z
	??$end@D$0BF@@std@@YAPEADAEAY0BF@D@Z
	??$end@V?$unordered_map@_KV?$shared_ptr@VFBAllocator@PLH@@@std@@U?$hash@_K@2@U?$equal_to@_K@2@V?$allocator@U?$pair@$$CB_KV?$shared_ptr@VFBAllocator@PLH@@@std@@@std@@@2@@std@@@std@@YA?AV?$_List_iterator@V?$_List_val@U?$_List_simple_types@U?$pair@$$CB_KV?$shared_ptr@VFBAllocator@PLH@@@std@@@std@@@std@@@std@@@0@AEAV?$unordered_map@_KV?$shared_ptr@VFBAllocator@PLH@@@std@@U?$hash@_K@2@U?$equal_to@_K@2@V?$allocator@U?$pair@$$CB_KV?$shared_ptr@VFBAllocator@PLH@@@std@@@std@@@2@@0@@Z
	??$endl@DU?$char_traits@D@std@@@std@@YAAEAV?$basic_ostream@DU?$char_traits@D@std@@@0@AEAV10@@Z
	??$exchange@PEAE$$T@std@@YAPEAEAEAPEAE$$QEA$$T@Z
	??$exchange@PEAU?$_List_node@U?$pair@$$CB_KV?$shared_ptr@VFBAllocator@PLH@@@std@@@std@@PEAX@std@@$$T@std@@YAPEAU?$_List_node@U?$pair@$$CB_KV?$shared_ptr@VFBAllocator@PLH@@@std@@@std@@PEAX@0@AEAPEAU10@$$QEA$$T@Z
	??$exchange@PEAU?$_List_node@U?$pair@$$CB_KV?$vector@VInstruction@PLH@@V?$allocator@VInstruction@PLH@@@std@@@std@@@std@@PEAX@std@@$$T@std@@YAPEAU?$_List_node@U?$pair@$$CB_KV?$vector@VInstruction@PLH@@V?$allocator@VInstruction@PLH@@@std@@@std@@@std@@PEAX@0@AEAPEAU10@$$QEA$$T@Z
	??$exchange@PEAU?$_List_node@UAVehHookImpEntry@PLH@@PEAX@std@@$$T@std@@YAPEAU?$_List_node@UAVehHookImpEntry@PLH@@PEAX@0@AEAPEAU10@$$QEA$$T@Z
	??$exchange@PEAU?$_Tree_node@U?$pair@$$CBG_K@std@@PEAX@std@@$$T@std@@YAPEAU?$_Tree_node@U?$pair@$$CBG_K@std@@PEAX@0@AEAPEAU10@$$QEA$$T@Z
	??$exchange@PEAU?$_Tree_node@U?$pair@$$CBG_K@std@@PEAX@std@@AEAPEAU12@@std@@YAPEAU?$_Tree_node@U?$pair@$$CBG_K@std@@PEAX@0@AEAPEAU10@0@Z
	??$exchange@PEAU?$_Tree_node@U?$pair@$$CBV?$basic_string@DU?$char_traits@D@std@@V?$allocator@D@2@@std@@V12@@std@@PEAX@std@@$$T@std@@YAPEAU?$_Tree_node@U?$pair@$$CBV?$basic_string@DU?$char_traits@D@std@@V?$allocator@D@2@@std@@V12@@std@@PEAX@0@AEAPEAU10@$$QEA$$T@Z
	??$exchange@PEAU?$_Tree_node@U?$pair@$$CBV?$basic_string@DU?$char_traits@D@std@@V?$allocator@D@2@@std@@V12@@std@@PEAX@std@@AEAPEAU12@@std@@YAPEAU?$_Tree_node@U?$pair@$$CBV?$basic_string@DU?$char_traits@D@std@@V?$allocator@D@2@@std@@V12@@std@@PEAX@0@AEAPEAU10@0@Z
	??$exchange@PEAU?$_Tree_node@U?$pair@$$CBW4ZydisRegisterClass_@@W4ZydisRegister_@@@std@@PEAX@std@@$$T@std@@YAPEAU?$_Tree_node@U?$pair@$$CBW4ZydisRegisterClass_@@W4ZydisRegister_@@@std@@PEAX@0@AEAPEAU10@$$QEA$$T@Z
	??$exchange@PEAU?$_Tree_node@U?$pair@$$CBW4ZydisRegisterClass_@@W4ZydisRegister_@@@std@@PEAX@std@@AEAPEAU12@@std@@YAPEAU?$_Tree_node@U?$pair@$$CBW4ZydisRegisterClass_@@W4ZydisRegister_@@@std@@PEAX@0@AEAPEAU10@0@Z
	??$exchange@PEAU?$_Tree_node@U?$pair@$$CBW4ZydisRegister_@@W41@@std@@PEAX@std@@$$T@std@@YAPEAU?$_Tree_node@U?$pair@$$CBW4ZydisRegister_@@W41@@std@@PEAX@0@AEAPEAU10@$$QEA$$T@Z
	??$exchange@PEAU?$_Tree_node@U?$pair@$$CBW4ZydisRegister_@@W41@@std@@PEAX@std@@AEAPEAU12@@std@@YAPEAU?$_Tree_node@U?$pair@$$CBW4ZydisRegister_@@W41@@std@@PEAX@0@AEAPEAU10@0@Z
	??$exchange@PEAU?$_Tree_node@V?$basic_string@DU?$char_traits@D@std@@V?$allocator@D@2@@std@@PEAX@std@@$$T@std@@YAPEAU?$_Tree_node@V?$basic_string@DU?$char_traits@D@std@@V?$allocator@D@2@@std@@PEAX@0@AEAPEAU10@$$QEA$$T@Z
	??$exchange@PEAU?$_Tree_node@V?$basic_string@DU?$char_traits@D@std@@V?$allocator@D@2@@std@@PEAX@std@@AEAPEAU12@@std@@YAPEAU?$_Tree_node@V?$basic_string@DU?$char_traits@D@std@@V?$allocator@D@2@@std@@PEAX@0@AEAPEAU10@0@Z
	??$exchange@PEAV?$basic_string@DU?$char_traits@D@std@@V?$allocator@D@2@@std@@$$T@std@@YAPEAV?$basic_string@DU?$char_traits@D@std@@V?$allocator@D@2@@0@AEAPEAV10@$$QEA$$T@Z
	??$exchange@PEAVInstruction@PLH@@$$T@std@@YAPEAVInstruction@PLH@@AEAPEAV12@$$QEA$$T@Z
	??$exchange@PEAW4OperandType@Instruction@PLH@@$$T@std@@YAPEAW4OperandType@Instruction@PLH@@AEAPEAW4123@$$QEA$$T@Z
	??$exchange@PEA_KAEAPEA_K@std@@YAPEA_KAEAPEA_K0@Z
	??$fill@PEAV?$_List_unchecked_const_iterator@V?$_List_val@U?$_List_simple_types@UAVehHookImpEntry@PLH@@@std@@@std@@U_Iterator_base0@2@@std@@V12@@std@@YAXQEAV?$_List_unchecked_const_iterator@V?$_List_val@U?$_List_simple_types@UAVehHookImpEntry@PLH@@@std@@@std@@U_Iterator_base0@2@@0@0AEBV10@@Z
	??$fill@PEAV?$_List_unchecked_iterator@V?$_List_val@U?$_List_simple_types@U?$pair@$$CB_KV?$shared_ptr@VFBAllocator@PLH@@@std@@@std@@@std@@@std@@@std@@V12@@std@@YAXQEAV?$_List_unchecked_iterator@V?$_List_val@U?$_List_simple_types@U?$pair@$$CB_KV?$shared_ptr@VFBAllocator@PLH@@@std@@@std@@@std@@@std@@@0@0AEBV10@@Z
	??$fill@PEAV?$_List_unchecked_iterator@V?$_List_val@U?$_List_simple_types@U?$pair@$$CB_KV?$vector@VInstruction@PLH@@V?$allocator@VInstruction@PLH@@@std@@@std@@@std@@@std@@@std@@@std@@V12@@std@@YAXQEAV?$_List_unchecked_iterator@V?$_List_val@U?$_List_simple_types@U?$pair@$$CB_KV?$vector@VInstruction@PLH@@V?$allocator@VInstruction@PLH@@@std@@@std@@@std@@@std@@@std@@@0@0AEBV10@@Z
	??$find@V?$_Vector_const_iterator@V?$_Vector_val@U?$_Simple_types@VInstruction@PLH@@@std@@@std@@@std@@VInstruction@PLH@@@std@@YA?AV?$_Vector_const_iterator@V?$_Vector_val@U?$_Simple_types@VInstruction@PLH@@@std@@@std@@@0@V10@V10@AEBVInstruction@PLH@@@Z
	??$find@V?$_Vector_iterator@V?$_Vector_val@U?$_Simple_types@VInstruction@PLH@@@std@@@std@@@std@@VInstruction@PLH@@@std@@YA?AV?$_Vector_iterator@V?$_Vector_val@U?$_Simple_types@VInstruction@PLH@@@std@@@std@@@0@V10@V10@AEBVInstruction@PLH@@@Z
	??$find@X@?$_Hash@V?$_Umap_traits@_KV?$shared_ptr@VFBAllocator@PLH@@@std@@V?$_Uhash_compare@_KU?$hash@_K@std@@U?$equal_to@_K@2@@2@V?$allocator@U?$pair@$$CB_KV?$shared_ptr@VFBAllocator@PLH@@@std@@@std@@@2@$0A@@std@@@std@@QEAA?AV?$_List_iterator@V?$_List_val@U?$_List_simple_types@U?$pair@$$CB_KV?$shared_ptr@VFBAllocator@PLH@@@std@@@std@@@std@@@std@@@1@AEB_K@Z
	??$find@X@?$_Hash@V?$_Umap_traits@_KV?$vector@VInstruction@PLH@@V?$allocator@VInstruction@PLH@@@std@@@std@@V?$_Uhash_compare@_KU?$hash@_K@std@@U?$equal_to@_K@2@@2@V?$allocator@U?$pair@$$CB_KV?$vector@VInstruction@PLH@@V?$allocator@VInstruction@PLH@@@std@@@std@@@std@@@2@$0A@@std@@@std@@QEAA?AV?$_List_iterator@V?$_List_val@U?$_List_simple_types@U?$pair@$$CB_KV?$vector@VInstruction@PLH@@V?$allocator@VInstruction@PLH@@@std@@@std@@@std@@@std@@@std@@@1@AEB_K@Z
	??$find@X@?$_Hash@V?$_Umap_traits@_KV?$vector@VInstruction@PLH@@V?$allocator@VInstruction@PLH@@@std@@@std@@V?$_Uhash_compare@_KU?$hash@_K@std@@U?$equal_to@_K@2@@2@V?$allocator@U?$pair@$$CB_KV?$vector@VInstruction@PLH@@V?$allocator@VInstruction@PLH@@@std@@@std@@@std@@@2@$0A@@std@@@std@@QEBA?AV?$_List_const_iterator@V?$_List_val@U?$_List_simple_types@U?$pair@$$CB_KV?$vector@VInstruction@PLH@@V?$allocator@VInstruction@PLH@@@std@@@std@@@std@@@std@@@std@@@1@AEB_K@Z
	??$findNearestCodeCave@$07@x64Detour@PLH@@IEAA?AV?$optional@_K@std@@_K@Z
	??$find_if@PEB_WU_Is_slash_oper@filesystem@std@@@std@@YAPEB_WPEB_WQEB_WU_Is_slash_oper@filesystem@0@@Z
	??$find_if@V?$_Vector_iterator@V?$_Vector_val@U?$_Simple_types@VInstruction@PLH@@@std@@@std@@@std@@V<lambda_3cba4c8b5f4de02bc1fefd59c1cf3a07>@@@std@@YA?AV?$_Vector_iterator@V?$_Vector_val@U?$_Simple_types@VInstruction@PLH@@@std@@@std@@@0@V10@V10@V<lambda_3cba4c8b5f4de02bc1fefd59c1cf3a07>@@@Z
	??$forward@AEAE@std@@YAAEAEAEAE@Z
	??$forward@AEAPEAD@std@@YAAEAPEADAEAPEAD@Z
	??$forward@AEAPEAU?$_List_node@U?$pair@$$CB_KV?$shared_ptr@VFBAllocator@PLH@@@std@@@std@@PEAX@std@@@std@@YAAEAPEAU?$_List_node@U?$pair@$$CB_KV?$shared_ptr@VFBAllocator@PLH@@@std@@@std@@PEAX@0@AEAPEAU10@@Z
	??$forward@AEAPEAU?$_List_node@U?$pair@$$CB_KV?$vector@VInstruction@PLH@@V?$allocator@VInstruction@PLH@@@std@@@std@@@std@@PEAX@std@@@std@@YAAEAPEAU?$_List_node@U?$pair@$$CB_KV?$vector@VInstruction@PLH@@V?$allocator@VInstruction@PLH@@@std@@@std@@@std@@PEAX@0@AEAPEAU10@@Z
	??$forward@AEAPEAU?$_List_node@UAVehHookImpEntry@PLH@@PEAX@std@@@std@@YAAEAPEAU?$_List_node@UAVehHookImpEntry@PLH@@PEAX@0@AEAPEAU10@@Z
	??$forward@AEAPEAU?$_Tree_node@U?$pair@$$CBG_K@std@@PEAX@std@@@std@@YAAEAPEAU?$_Tree_node@U?$pair@$$CBG_K@std@@PEAX@0@AEAPEAU10@@Z
	??$forward@AEAPEAU?$_Tree_node@U?$pair@$$CBV?$basic_string@DU?$char_traits@D@std@@V?$allocator@D@2@@std@@V12@@std@@PEAX@std@@@std@@YAAEAPEAU?$_Tree_node@U?$pair@$$CBV?$basic_string@DU?$char_traits@D@std@@V?$allocator@D@2@@std@@V12@@std@@PEAX@0@AEAPEAU10@@Z
	??$forward@AEAPEAU?$_Tree_node@U?$pair@$$CBW4ZydisRegisterClass_@@W4ZydisRegister_@@@std@@PEAX@std@@@std@@YAAEAPEAU?$_Tree_node@U?$pair@$$CBW4ZydisRegisterClass_@@W4ZydisRegister_@@@std@@PEAX@0@AEAPEAU10@@Z
	??$forward@AEAPEAU?$_Tree_node@U?$pair@$$CBW4ZydisRegister_@@W41@@std@@PEAX@std@@@std@@YAAEAPEAU?$_Tree_node@U?$pair@$$CBW4ZydisRegister_@@W41@@std@@PEAX@0@AEAPEAU10@@Z
	??$forward@AEAPEAU?$_Tree_node@V?$basic_string@DU?$char_traits@D@std@@V?$allocator@D@2@@std@@PEAX@std@@@std@@YAAEAPEAU?$_Tree_node@V?$basic_string@DU?$char_traits@D@std@@V?$allocator@D@2@@std@@PEAX@0@AEAPEAU10@@Z
	??$forward@AEAPEAU_EXCEPTION_POINTERS@@@std@@YAAEAPEAU_EXCEPTION_POINTERS@@AEAPEAU1@@Z
	??$forward@AEAPEAV?$shared_ptr@VFBAllocator@PLH@@@std@@@std@@YAAEAPEAV?$shared_ptr@VFBAllocator@PLH@@@0@AEAPEAV10@@Z
	??$forward@AEAPEAVInstruction@PLH@@@std@@YAAEAPEAVInstruction@PLH@@AEAPEAV12@@Z
	??$forward@AEAPEA_W@std@@YAAEAPEA_WAEAPEA_W@Z
	??$forward@AEAPEB_W@std@@YAAEAPEB_WAEAPEB_W@Z
	??$forward@AEAU?$pair@$$CBG_K@std@@@std@@YAAEAU?$pair@$$CBG_K@0@AEAU10@@Z
	??$forward@AEAUTranslationResult@PLH@@@std@@YAAEAUTranslationResult@PLH@@AEAU12@@Z
	??$forward@AEAV?$basic_string@DU?$char_traits@D@std@@V?$allocator@D@2@@std@@@std@@YAAEAV?$basic_string@DU?$char_traits@D@std@@V?$allocator@D@2@@0@AEAV10@@Z
	??$forward@AEAV?$vector@VInstruction@PLH@@V?$allocator@VInstruction@PLH@@@std@@@std@@@std@@YAAEAV?$vector@VInstruction@PLH@@V?$allocator@VInstruction@PLH@@@std@@@0@AEAV10@@Z
	??$forward@AEAVAssembler@x86@_abi_1_10@asmjit@@@std@@YAAEAVAssembler@x86@_abi_1_10@asmjit@@AEAV1234@@Z
	??$forward@AEAVInstruction@PLH@@@std@@YAAEAVInstruction@PLH@@AEAV12@@Z
	??$forward@AEAW4OperandType@Instruction@PLH@@@std@@YAAEAW4OperandType@Instruction@PLH@@AEAW4123@@Z
	??$forward@AEAY02$$CBD@std@@YAAEAY02$$CBDAEAY02$$CBD@Z
	??$forward@AEAY03$$CBD@std@@YAAEAY03$$CBDAEAY03$$CBD@Z
	??$forward@AEAY08$$CBD@std@@YAAEAY08$$CBDAEAY08$$CBD@Z
	??$forward@AEAY0BA@$$CBD@std@@YAAEAY0BA@$$CBDAEAY0BA@$$CBD@Z
	??$forward@AEAY0BG@$$CBD@std@@YAAEAY0BG@$$CBDAEAY0BG@$$CBD@Z
	??$forward@AEA_K@std@@YAAEA_KAEA_K@Z
	??$forward@AEBE@std@@YAAEBEAEBE@Z
	??$forward@AEBG@std@@YAAEBGAEBG@Z
	??$forward@AEBQEAD@std@@YAAEBQEADAEBQEAD@Z
	??$forward@AEBQEAE@std@@YAAEBQEAEAEBQEAE@Z
	??$forward@AEBQEAU?$_List_node@U?$pair@$$CB_KV?$shared_ptr@VFBAllocator@PLH@@@std@@@std@@PEAX@std@@@std@@YAAEBQEAU?$_List_node@U?$pair@$$CB_KV?$shared_ptr@VFBAllocator@PLH@@@std@@@std@@PEAX@0@AEBQEAU10@@Z
	??$forward@AEBQEAU?$_List_node@U?$pair@$$CB_KV?$vector@VInstruction@PLH@@V?$allocator@VInstruction@PLH@@@std@@@std@@@std@@PEAX@std@@@std@@YAAEBQEAU?$_List_node@U?$pair@$$CB_KV?$vector@VInstruction@PLH@@V?$allocator@VInstruction@PLH@@@std@@@std@@@std@@PEAX@0@AEBQEAU10@@Z
	??$forward@AEBQEAU?$_List_node@UAVehHookImpEntry@PLH@@PEAX@std@@@std@@YAAEBQEAU?$_List_node@UAVehHookImpEntry@PLH@@PEAX@0@AEBQEAU10@@Z
	??$forward@AEBQEAU?$_Tree_node@U?$pair@$$CBG_K@std@@PEAX@std@@@std@@YAAEBQEAU?$_Tree_node@U?$pair@$$CBG_K@std@@PEAX@0@AEBQEAU10@@Z
	??$forward@AEBQEAU?$_Tree_node@U?$pair@$$CBV?$basic_string@DU?$char_traits@D@std@@V?$allocator@D@2@@std@@V12@@std@@PEAX@std@@@std@@YAAEBQEAU?$_Tree_node@U?$pair@$$CBV?$basic_string@DU?$char_traits@D@std@@V?$allocator@D@2@@std@@V12@@std@@PEAX@0@AEBQEAU10@@Z
	??$forward@AEBQEAU?$_Tree_node@U?$pair@$$CBW4ZydisRegisterClass_@@W4ZydisRegister_@@@std@@PEAX@std@@@std@@YAAEBQEAU?$_Tree_node@U?$pair@$$CBW4ZydisRegisterClass_@@W4ZydisRegister_@@@std@@PEAX@0@AEBQEAU10@@Z
	??$forward@AEBQEAU?$_Tree_node@U?$pair@$$CBW4ZydisRegister_@@W41@@std@@PEAX@std@@@std@@YAAEBQEAU?$_Tree_node@U?$pair@$$CBW4ZydisRegister_@@W41@@std@@PEAX@0@AEBQEAU10@@Z
	??$forward@AEBQEAU?$_Tree_node@V?$basic_string@DU?$char_traits@D@std@@V?$allocator@D@2@@std@@PEAX@std@@@std@@YAAEBQEAU?$_Tree_node@V?$basic_string@DU?$char_traits@D@std@@V?$allocator@D@2@@std@@PEAX@0@AEBQEAU10@@Z
	??$forward@AEBQEAVInstruction@PLH@@@std@@YAAEBQEAVInstruction@PLH@@AEBQEAV12@@Z
	??$forward@AEBQEAW4OperandType@Instruction@PLH@@@std@@YAAEBQEAW4OperandType@Instruction@PLH@@AEBQEAW4123@@Z
	??$forward@AEBQEA_W@std@@YAAEBQEA_WAEBQEA_W@Z
	??$forward@AEBU?$less@G@std@@@std@@YAAEBU?$less@G@0@AEBU10@@Z
	??$forward@AEBU?$less@V?$basic_string@DU?$char_traits@D@std@@V?$allocator@D@2@@std@@@std@@@std@@YAAEBU?$less@V?$basic_string@DU?$char_traits@D@std@@V?$allocator@D@2@@std@@@0@AEBU10@@Z
	??$forward@AEBU?$less@W4ZydisRegisterClass_@@@std@@@std@@YAAEBU?$less@W4ZydisRegisterClass_@@@0@AEBU10@@Z
	??$forward@AEBU?$less@W4ZydisRegister_@@@std@@@std@@YAAEBU?$less@W4ZydisRegister_@@@0@AEBU10@@Z
	??$forward@AEBU?$pair@$$CBV?$basic_string@DU?$char_traits@D@std@@V?$allocator@D@2@@std@@V12@@std@@@std@@YAAEBU?$pair@$$CBV?$basic_string@DU?$char_traits@D@std@@V?$allocator@D@2@@std@@V12@@0@AEBU10@@Z
	??$forward@AEBU?$pair@$$CBW4ZydisRegisterClass_@@W4ZydisRegister_@@@std@@@std@@YAAEBU?$pair@$$CBW4ZydisRegisterClass_@@W4ZydisRegister_@@@0@AEBU10@@Z
	??$forward@AEBU?$pair@$$CBW4ZydisRegister_@@W41@@std@@@std@@YAAEBU?$pair@$$CBW4ZydisRegister_@@W41@@0@AEBU10@@Z
	??$forward@AEBUAVehHookImpEntry@PLH@@@std@@YAAEBUAVehHookImpEntry@PLH@@AEBU12@@Z
	??$forward@AEBUError@PLH@@@std@@YAAEBUError@PLH@@AEBU12@@Z
	??$forward@AEBUpiecewise_construct_t@std@@@std@@YAAEBUpiecewise_construct_t@0@AEBU10@@Z
	??$forward@AEBV?$_List_unchecked_const_iterator@V?$_List_val@U?$_List_simple_types@UAVehHookImpEntry@PLH@@@std@@@std@@U_Iterator_base0@2@@std@@@std@@YAAEBV?$_List_unchecked_const_iterator@V?$_List_val@U?$_List_simple_types@UAVehHookImpEntry@PLH@@@std@@@std@@U_Iterator_base0@2@@0@AEBV10@@Z
	??$forward@AEBV?$_List_unchecked_iterator@V?$_List_val@U?$_List_simple_types@U?$pair@$$CB_KV?$shared_ptr@VFBAllocator@PLH@@@std@@@std@@@std@@@std@@@std@@@std@@YAAEBV?$_List_unchecked_iterator@V?$_List_val@U?$_List_simple_types@U?$pair@$$CB_KV?$shared_ptr@VFBAllocator@PLH@@@std@@@std@@@std@@@std@@@0@AEBV10@@Z
	??$forward@AEBV?$_List_unchecked_iterator@V?$_List_val@U?$_List_simple_types@U?$pair@$$CB_KV?$vector@VInstruction@PLH@@V?$allocator@VInstruction@PLH@@@std@@@std@@@std@@@std@@@std@@@std@@@std@@YAAEBV?$_List_unchecked_iterator@V?$_List_val@U?$_List_simple_types@U?$pair@$$CB_KV?$vector@VInstruction@PLH@@V?$allocator@VInstruction@PLH@@@std@@@std@@@std@@@std@@@std@@@0@AEBV10@@Z
	??$forward@AEBV?$allocator@D@std@@@std@@YAAEBV?$allocator@D@0@AEBV10@@Z
	??$forward@AEBV?$allocator@E@std@@@std@@YAAEBV?$allocator@E@0@AEBV10@@Z
	??$forward@AEBV?$allocator@U?$pair@$$CB_KV?$shared_ptr@VFBAllocator@PLH@@@std@@@std@@@std@@@std@@YAAEBV?$allocator@U?$pair@$$CB_KV?$shared_ptr@VFBAllocator@PLH@@@std@@@std@@@0@AEBV10@@Z
	??$forward@AEBV?$allocator@U?$pair@$$CB_KV?$vector@VInstruction@PLH@@V?$allocator@VInstruction@PLH@@@std@@@std@@@std@@@std@@@std@@YAAEBV?$allocator@U?$pair@$$CB_KV?$vector@VInstruction@PLH@@V?$allocator@VInstruction@PLH@@@std@@@std@@@std@@@0@AEBV10@@Z
	??$forward@AEBV?$allocator@UAVehHookImpEntry@PLH@@@std@@@std@@YAAEBV?$allocator@UAVehHookImpEntry@PLH@@@0@AEBV10@@Z
	??$forward@AEBV?$allocator@VInstruction@PLH@@@std@@@std@@YAAEBV?$allocator@VInstruction@PLH@@@0@AEBV10@@Z
	??$forward@AEBV?$allocator@_W@std@@@std@@YAAEBV?$allocator@_W@0@AEBV10@@Z
	??$forward@AEBV?$basic_string@DU?$char_traits@D@std@@V?$allocator@D@2@@std@@@std@@YAAEBV?$basic_string@DU?$char_traits@D@std@@V?$allocator@D@2@@0@AEBV10@@Z
	??$forward@AEBV?$shared_ptr@VFBAllocator@PLH@@@std@@@std@@YAAEBV?$shared_ptr@VFBAllocator@PLH@@@0@AEBV10@@Z
	??$forward@AEBVInstruction@PLH@@@std@@YAAEBVInstruction@PLH@@AEBV12@@Z
	??$forward@AEBVReg@x86@_abi_1_10@asmjit@@@std@@YAAEBVReg@x86@_abi_1_10@asmjit@@AEBV1234@@Z
	??$forward@E@std@@YA$$QEAEAEAE@Z
	??$forward@M@std@@YA$$QEAMAEAM@Z
	??$forward@PEAE@std@@YA$$QEAPEAEAEAPEAE@Z
	??$forward@PEAK@std@@YA$$QEAPEAKAEAPEAK@Z
	??$forward@PEAU?$_List_node@U?$pair@$$CB_KV?$shared_ptr@VFBAllocator@PLH@@@std@@@std@@PEAX@std@@@std@@YA$$QEAPEAU?$_List_node@U?$pair@$$CB_KV?$shared_ptr@VFBAllocator@PLH@@@std@@@std@@PEAX@0@AEAPEAU10@@Z
	??$forward@PEAU?$_Tree_node@U?$pair@$$CBG_K@std@@PEAX@std@@@std@@YA$$QEAPEAU?$_Tree_node@U?$pair@$$CBG_K@std@@PEAX@0@AEAPEAU10@@Z
	??$forward@PEAU_EXCEPTION_POINTERS@@@std@@YA$$QEAPEAU_EXCEPTION_POINTERS@@AEAPEAU1@@Z
	??$forward@PEAV?$basic_string@DU?$char_traits@D@std@@V?$allocator@D@2@@std@@@std@@YA$$QEAPEAV?$basic_string@DU?$char_traits@D@std@@V?$allocator@D@2@@0@AEAPEAV10@@Z
	??$forward@PEAVInstruction@PLH@@@std@@YA$$QEAPEAVInstruction@PLH@@AEAPEAV12@@Z
	??$forward@PEAW4OperandType@Instruction@PLH@@@std@@YA$$QEAPEAW4OperandType@Instruction@PLH@@AEAPEAW4123@@Z
	??$forward@PEBE@std@@YA$$QEAPEBEAEAPEBE@Z
	??$forward@PEBVInstruction@PLH@@@std@@YA$$QEAPEBVInstruction@PLH@@AEAPEBV12@@Z
	??$forward@U?$less@G@std@@@std@@YA$$QEAU?$less@G@0@AEAU10@@Z
	??$forward@UError@PLH@@@std@@YA$$QEAUError@PLH@@AEAU12@@Z
	??$forward@U_One_then_variadic_args_t@std@@@std@@YA$$QEAU_One_then_variadic_args_t@0@AEAU10@@Z
	??$forward@U_Zero_then_variadic_args_t@std@@@std@@YA$$QEAU_Zero_then_variadic_args_t@0@AEAU10@@Z
	??$forward@V?$_List_iterator@V?$_List_val@U?$_List_simple_types@U?$pair@$$CB_KV?$vector@VInstruction@PLH@@V?$allocator@VInstruction@PLH@@@std@@@std@@@std@@@std@@@std@@@std@@@std@@YA$$QEAV?$_List_iterator@V?$_List_val@U?$_List_simple_types@U?$pair@$$CB_KV?$vector@VInstruction@PLH@@V?$allocator@VInstruction@PLH@@@std@@@std@@@std@@@std@@@std@@@0@AEAV10@@Z
	??$forward@V?$_List_iterator@V?$_List_val@U?$_List_simple_types@UAVehHookImpEntry@PLH@@@std@@@std@@@std@@@std@@YA$$QEAV?$_List_iterator@V?$_List_val@U?$_List_simple_types@UAVehHookImpEntry@PLH@@@std@@@std@@@0@AEAV10@@Z
	??$forward@V?$allocator@D@std@@@std@@YA$$QEAV?$allocator@D@0@AEAV10@@Z
	??$forward@V?$allocator@E@std@@@std@@YA$$QEAV?$allocator@E@0@AEAV10@@Z
	??$forward@V?$allocator@U?$_Tree_node@U?$pair@$$CBG_K@std@@PEAX@std@@@std@@@std@@YA$$QEAV?$allocator@U?$_Tree_node@U?$pair@$$CBG_K@std@@PEAX@std@@@0@AEAV10@@Z
	??$forward@V?$allocator@V?$basic_string@DU?$char_traits@D@std@@V?$allocator@D@2@@std@@@std@@@std@@YA$$QEAV?$allocator@V?$basic_string@DU?$char_traits@D@std@@V?$allocator@D@2@@std@@@0@AEAV10@@Z
	??$forward@V?$allocator@VInstruction@PLH@@@std@@@std@@YA$$QEAV?$allocator@VInstruction@PLH@@@0@AEAV10@@Z
	??$forward@V?$allocator@W4OperandType@Instruction@PLH@@@std@@@std@@YA$$QEAV?$allocator@W4OperandType@Instruction@PLH@@@0@AEAV10@@Z
	??$forward@V?$allocator@_W@std@@@std@@YA$$QEAV?$allocator@_W@0@AEAV10@@Z
	??$forward@V?$basic_string@DU?$char_traits@D@std@@V?$allocator@D@2@@std@@@std@@YA$$QEAV?$basic_string@DU?$char_traits@D@std@@V?$allocator@D@2@@0@AEAV10@@Z
	??$forward@V?$ostream_iterator@V?$basic_string@DU?$char_traits@D@std@@V?$allocator@D@2@@std@@DU?$char_traits@D@2@@std@@@std@@YA$$QEAV?$ostream_iterator@V?$basic_string@DU?$char_traits@D@std@@V?$allocator@D@2@@std@@DU?$char_traits@D@2@@0@AEAV10@@Z
	??$forward@V?$shared_ptr@VFBAllocator@PLH@@@std@@@std@@YA$$QEAV?$shared_ptr@VFBAllocator@PLH@@@0@AEAV10@@Z
	??$forward@V?$tuple@$$QEA_K@std@@@std@@YA$$QEAV?$tuple@$$QEA_K@0@AEAV10@@Z
	??$forward@V?$tuple@$$V@std@@@std@@YA$$QEAV?$tuple@$$V@0@AEAV10@@Z
	??$forward@V?$tuple@AEBG@std@@@std@@YA$$QEAV?$tuple@AEBG@0@AEAV10@@Z
	??$forward@V?$vector@VInstruction@PLH@@V?$allocator@VInstruction@PLH@@@std@@@std@@@std@@YA$$QEAV?$vector@VInstruction@PLH@@V?$allocator@VInstruction@PLH@@@std@@@0@AEAV10@@Z
	??$forward@VEffect@@@std@@YA$$QEAVEffect@@AEAV1@@Z
	??$forward@VInstruction@PLH@@@std@@YA$$QEAVInstruction@PLH@@AEAV12@@Z
	??$forward@VReg@x86@_abi_1_10@asmjit@@@std@@YA$$QEAVReg@x86@_abi_1_10@asmjit@@AEAV1234@@Z
	??$forward@W4OperandType@Instruction@PLH@@@std@@YA$$QEAW4OperandType@Instruction@PLH@@AEAW4123@@Z
	??$forward@W4TypeId@_abi_1_10@asmjit@@@std@@YA$$QEAW4TypeId@_abi_1_10@asmjit@@AEAW4123@@Z
	??$forward@W4ZydisRegisterClass_@@@std@@YA$$QEAW4ZydisRegisterClass_@@AEAW41@@Z
	??$forward@W4ZydisRegister_@@@std@@YA$$QEAW4ZydisRegister_@@AEAW41@@Z
	??$forward@_K@std@@YA$$QEA_KAEA_K@Z
	??$forward@_N@std@@YA$$QEA_NAEA_N@Z
	??$forward_as_tuple@$$V@std@@YA?AV?$tuple@$$V@0@XZ
	??$forward_as_tuple@AEBG@std@@YA?AV?$tuple@AEBG@0@AEBG@Z
	??$forward_as_tuple@_K@std@@YA?AV?$tuple@$$QEA_K@0@$$QEA_K@Z
	??$getField@$0PAA@$07@OperandSignature@_abi_1_10@asmjit@@QEBAIXZ
	??$getField@$0PI@$02@OperandSignature@_abi_1_10@asmjit@@QEBAIXZ
	??$insert@V?$_Vector_const_iterator@V?$_Vector_val@U?$_Simple_types@V?$basic_string@DU?$char_traits@D@std@@V?$allocator@D@2@@std@@@std@@@std@@@std@@$0A@@?$vector@V?$basic_string@DU?$char_traits@D@std@@V?$allocator@D@2@@std@@V?$allocator@V?$basic_string@DU?$char_traits@D@std@@V?$allocator@D@2@@std@@@2@@std@@QEAA?AV?$_Vector_iterator@V?$_Vector_val@U?$_Simple_types@V?$basic_string@DU?$char_traits@D@std@@V?$allocator@D@2@@std@@@std@@@std@@@1@V?$_Vector_const_iterator@V?$_Vector_val@U?$_Simple_types@V?$basic_string@DU?$char_traits@D@std@@V?$allocator@D@2@@std@@@std@@@std@@@1@00@Z
	??$insert@V?$_Vector_iterator@V?$_Vector_val@U?$_Simple_types@VInstruction@PLH@@@std@@@std@@@std@@$0A@@?$vector@VInstruction@PLH@@V?$allocator@VInstruction@PLH@@@std@@@std@@QEAA?AV?$_Vector_iterator@V?$_Vector_val@U?$_Simple_types@VInstruction@PLH@@@std@@@std@@@1@V?$_Vector_const_iterator@V?$_Vector_val@U?$_Simple_types@VInstruction@PLH@@@std@@@std@@@1@V21@1@Z
	??$instsToStr@V?$vector@VInstruction@PLH@@V?$allocator@VInstruction@PLH@@@std@@@std@@@PLH@@YA?AV?$basic_string@DU?$char_traits@D@std@@V?$allocator@D@2@@std@@AEBV?$vector@VInstruction@PLH@@V?$allocator@VInstruction@PLH@@@std@@@2@@Z
	??$int_to_hex@E@PLH@@YA?AV?$basic_string@DU?$char_traits@D@std@@V?$allocator@D@2@@std@@E@Z
	??$int_to_hex@G@PLH@@YA?AV?$basic_string@DU?$char_traits@D@std@@V?$allocator@D@2@@std@@G@Z
	??$int_to_hex@I@PLH@@YA?AV?$basic_string@DU?$char_traits@D@std@@V?$allocator@D@2@@std@@I@Z
	??$int_to_hex@_K@PLH@@YA?AV?$basic_string@DU?$char_traits@D@std@@V?$allocator@D@2@@std@@_K@Z
	??$make_shared@VFBAllocator@PLH@@AEA_KAEA_KAEAEAEAE@std@@YA?AV?$shared_ptr@VFBAllocator@PLH@@@0@AEA_K0AEAE1@Z
	??$max@E@std@@YAAEBEAEBE0@Z
	??$max@PEAD@std@@YAAEBQEADAEBQEAD0@Z
	??$max@_K@std@@YAAEB_KAEB_K0@Z
	??$min@_K@std@@YAAEB_KAEB_K0@Z
	??$move@AEAE@std@@YA$$QEAEAEAE@Z
	??$move@AEAPEAE@std@@YA$$QEAPEAEAEAPEAE@Z
	??$move@AEAPEAVFBAllocator@PLH@@@std@@YA$$QEAPEAVFBAllocator@PLH@@AEAPEAV12@@Z
	??$move@AEAPEAVInstruction@PLH@@@std@@YA$$QEAPEAVInstruction@PLH@@AEAPEAV12@@Z
	??$move@AEAPEAVLogger@PLH@@@std@@YA$$QEAPEAVLogger@PLH@@AEAPEAV12@@Z
	??$move@AEAPEAV_Ref_count_base@std@@@std@@YA$$QEAPEAV_Ref_count_base@0@AEAPEAV10@@Z
	??$move@AEAPEAW4OperandType@Instruction@PLH@@@std@@YA$$QEAPEAW4OperandType@Instruction@PLH@@AEAPEAW4123@@Z
	??$move@AEAPEBE@std@@YA$$QEAPEBEAEAPEBE@Z
	??$move@AEAPEBV?$basic_string@DU?$char_traits@D@std@@V?$allocator@D@2@@std@@@std@@YA$$QEAPEBV?$basic_string@DU?$char_traits@D@std@@V?$allocator@D@2@@0@AEAPEBV10@@Z
	??$move@AEAPEBVInstruction@PLH@@@std@@YA$$QEAPEBVInstruction@PLH@@AEAPEBV12@@Z
	??$move@AEAUError@PLH@@@std@@YA$$QEAUError@PLH@@AEAU12@@Z
	??$move@AEAV<lambda_1d9d9ae22e4724420ae7f74b9e164e3b>@@@std@@YA$$QEAV<lambda_1d9d9ae22e4724420ae7f74b9e164e3b>@@AEAV1@@Z
	??$move@AEAV?$_Vector_iterator@V?$_Vector_val@U?$_Simple_types@VInstruction@PLH@@@std@@@std@@@std@@@std@@YA$$QEAV?$_Vector_iterator@V?$_Vector_val@U?$_Simple_types@VInstruction@PLH@@@std@@@std@@@0@AEAV10@@Z
	??$move@AEAV?$allocator@D@std@@@std@@YA$$QEAV?$allocator@D@0@AEAV10@@Z
	??$move@AEAV?$allocator@E@std@@@std@@YA$$QEAV?$allocator@E@0@AEAV10@@Z
	??$move@AEAV?$allocator@V?$basic_string@DU?$char_traits@D@std@@V?$allocator@D@2@@std@@@std@@@std@@YA$$QEAV?$allocator@V?$basic_string@DU?$char_traits@D@std@@V?$allocator@D@2@@std@@@0@AEAV10@@Z
	??$move@AEAV?$allocator@VInstruction@PLH@@@std@@@std@@YA$$QEAV?$allocator@VInstruction@PLH@@@0@AEAV10@@Z
	??$move@AEAV?$allocator@W4OperandType@Instruction@PLH@@@std@@@std@@YA$$QEAV?$allocator@W4OperandType@Instruction@PLH@@@0@AEAV10@@Z
	??$move@AEAV?$allocator@_W@std@@@std@@YA$$QEAV?$allocator@_W@0@AEAV10@@Z
	??$move@AEAV?$basic_string@DU?$char_traits@D@std@@V?$allocator@D@2@@std@@@std@@YA$$QEAV?$basic_string@DU?$char_traits@D@std@@V?$allocator@D@2@@0@AEAV10@@Z
	??$move@AEAV?$basic_string@_WU?$char_traits@_W@std@@V?$allocator@_W@2@@std@@@std@@YA$$QEAV?$basic_string@_WU?$char_traits@_W@std@@V?$allocator@_W@2@@0@AEAV10@@Z
	??$move@AEAV?$shared_ptr@VFBAllocator@PLH@@@std@@@std@@YA$$QEAV?$shared_ptr@VFBAllocator@PLH@@@0@AEAV10@@Z
	??$move@AEAV?$tuple@$$QEA_K@std@@@std@@YA$$QEAV?$tuple@$$QEA_K@0@AEAV10@@Z
	??$move@AEAV?$tuple@AEBG@std@@@std@@YA$$QEAV?$tuple@AEBG@0@AEAV10@@Z
	??$move@AEAVEffect@@@std@@YA$$QEAVEffect@@AEAV1@@Z
	??$move@AEAVInstruction@PLH@@@std@@YA$$QEAVInstruction@PLH@@AEAV12@@Z
	??$move@AEAVReg@x86@_abi_1_10@asmjit@@@std@@YA$$QEAVReg@x86@_abi_1_10@asmjit@@AEAV1234@@Z
	??$move@AEAW4OperandType@Instruction@PLH@@@std@@YA$$QEAW4OperandType@Instruction@PLH@@AEAW4123@@Z
	??$move@AEAW4TypeId@_abi_1_10@asmjit@@@std@@YA$$QEAW4TypeId@_abi_1_10@asmjit@@AEAW4123@@Z
	??$move@AEA_K@std@@YA$$QEA_KAEA_K@Z
	??$newUIntPtr@$$V@Compiler@x86@_abi_1_10@asmjit@@QEAA?AVGp@123@PEBD@Z
	??$pow@HH$0A@@@YANHH@Z
	??$printInsts@V?$vector@VInstruction@PLH@@V?$allocator@VInstruction@PLH@@@std@@@std@@@PLH@@YAAEAV?$basic_ostream@DU?$char_traits@D@std@@@std@@AEAV12@AEBV?$vector@VInstruction@PLH@@V?$allocator@VInstruction@PLH@@@std@@@2@@Z
	??$remove@V?$_Vector_iterator@V?$_Vector_val@U?$_Simple_types@V?$shared_ptr@VFBAllocator@PLH@@@std@@@std@@@std@@@std@@V?$shared_ptr@VFBAllocator@PLH@@@2@@std@@YA?AV?$_Vector_iterator@V?$_Vector_val@U?$_Simple_types@V?$shared_ptr@VFBAllocator@PLH@@@std@@@std@@@std@@@0@V10@V10@AEBV?$shared_ptr@VFBAllocator@PLH@@@0@@Z
	??$reset@PEA_K$0A@@?$unique_ptr@$$BY0A@_KU?$default_delete@$$BY0A@_K@std@@@std@@QEAAXPEA_K@Z
	??$setField@$0BPAA@$07@OperandSignature@_abi_1_10@asmjit@@QEAAXI@Z
	??$setField@$0PPAAAAAA@$0BI@@OperandSignature@_abi_1_10@asmjit@@QEAAXI@Z
	??$setfill@D@std@@YA?AU?$_Fillobj@D@0@D@Z
	??$swap@PEAVFBAllocator@PLH@@$0A@@std@@YAXAEAPEAVFBAllocator@PLH@@0@Z
	??$swap@PEAVLogger@PLH@@$0A@@std@@YAXAEAPEAVLogger@PLH@@0@Z
	??$swap@PEAV_Ref_count_base@std@@$0A@@std@@YAXAEAPEAV_Ref_count_base@0@0@Z
	??$uninitialized_fill@PEAV?$_List_unchecked_const_iterator@V?$_List_val@U?$_List_simple_types@UAVehHookImpEntry@PLH@@@std@@@std@@U_Iterator_base0@2@@std@@V12@@std@@YAXQEAV?$_List_unchecked_const_iterator@V?$_List_val@U?$_List_simple_types@UAVehHookImpEntry@PLH@@@std@@@std@@U_Iterator_base0@2@@0@0AEBV10@@Z
	??$uninitialized_fill@PEAV?$_List_unchecked_iterator@V?$_List_val@U?$_List_simple_types@U?$pair@$$CB_KV?$shared_ptr@VFBAllocator@PLH@@@std@@@std@@@std@@@std@@@std@@V12@@std@@YAXQEAV?$_List_unchecked_iterator@V?$_List_val@U?$_List_simple_types@U?$pair@$$CB_KV?$shared_ptr@VFBAllocator@PLH@@@std@@@std@@@std@@@std@@@0@0AEBV10@@Z
	??$uninitialized_fill@PEAV?$_List_unchecked_iterator@V?$_List_val@U?$_List_simple_types@U?$pair@$$CB_KV?$vector@VInstruction@PLH@@V?$allocator@VInstruction@PLH@@@std@@@std@@@std@@@std@@@std@@@std@@V12@@std@@YAXQEAV?$_List_unchecked_iterator@V?$_List_val@U?$_List_simple_types@U?$pair@$$CB_KV?$vector@VInstruction@PLH@@V?$allocator@VInstruction@PLH@@@std@@@std@@@std@@@std@@@std@@@0@0AEBV10@@Z
	??$vector_contains@VInstruction@PLH@@@PLH@@YA_NV?$vector@VInstruction@PLH@@V?$allocator@VInstruction@PLH@@@std@@@std@@VInstruction@0@@Z
	??0<lambda_1d9d9ae22e4724420ae7f74b9e164e3b>@@QEAA@AEBQEAE@Z
	??0<lambda_3cba4c8b5f4de02bc1fefd59c1cf3a07>@@QEAA@AEBVInstruction@PLH@@@Z
	??0<lambda_3e7d2ed0a1fad9c1d92b51e8c2370ff4>@@QEAA@AEAPEAEAEA_K1@Z
	??0<lambda_b4cea091025d8ad475b7fbc4919b80fd>@@QEAA@AEAPEAEAEA_K1@Z
	??0?$EventDispatcher@$$A6A_NPEAU_EXCEPTION_POINTERS@@PEAK@Z@PLH@@QEAA@XZ
	??0?$FinalAction@V<lambda_1d9d9ae22e4724420ae7f74b9e164e3b>@@@PLH@@QEAA@V<lambda_1d9d9ae22e4724420ae7f74b9e164e3b>@@@Z
	??0?$FuncSignatureT@XPEAUParameters@ILCallback@PLH@@EPEAUReturnValue@23@@_abi_1_10@asmjit@@QEAA@W4CallConvId@12@I@Z
	??0?$_Alloc_construct_ptr@V?$allocator@U?$_List_node@U?$pair@$$CB_KV?$shared_ptr@VFBAllocator@PLH@@@std@@@std@@PEAX@std@@@std@@@std@@QEAA@AEAV?$allocator@U?$_List_node@U?$pair@$$CB_KV?$shared_ptr@VFBAllocator@PLH@@@std@@@std@@PEAX@std@@@1@@Z
	??0?$_Alloc_construct_ptr@V?$allocator@U?$_List_node@U?$pair@$$CB_KV?$vector@VInstruction@PLH@@V?$allocator@VInstruction@PLH@@@std@@@std@@@std@@PEAX@std@@@std@@@std@@QEAA@AEAV?$allocator@U?$_List_node@U?$pair@$$CB_KV?$vector@VInstruction@PLH@@V?$allocator@VInstruction@PLH@@@std@@@std@@@std@@PEAX@std@@@1@@Z
	??0?$_Alloc_construct_ptr@V?$allocator@U?$_List_node@UAVehHookImpEntry@PLH@@PEAX@std@@@std@@@std@@QEAA@AEAV?$allocator@U?$_List_node@UAVehHookImpEntry@PLH@@PEAX@std@@@1@@Z
	??0?$_Alloc_construct_ptr@V?$allocator@U?$_Tree_node@U?$pair@$$CBG_K@std@@PEAX@std@@@std@@@std@@QEAA@AEAV?$allocator@U?$_Tree_node@U?$pair@$$CBG_K@std@@PEAX@std@@@1@@Z
	??0?$_Alloc_construct_ptr@V?$allocator@U?$_Tree_node@U?$pair@$$CBV?$basic_string@DU?$char_traits@D@std@@V?$allocator@D@2@@std@@V12@@std@@PEAX@std@@@std@@@std@@QEAA@AEAV?$allocator@U?$_Tree_node@U?$pair@$$CBV?$basic_string@DU?$char_traits@D@std@@V?$allocator@D@2@@std@@V12@@std@@PEAX@std@@@1@@Z
	??0?$_Alloc_construct_ptr@V?$allocator@U?$_Tree_node@U?$pair@$$CBW4ZydisRegisterClass_@@W4ZydisRegister_@@@std@@PEAX@std@@@std@@@std@@QEAA@AEAV?$allocator@U?$_Tree_node@U?$pair@$$CBW4ZydisRegisterClass_@@W4ZydisRegister_@@@std@@PEAX@std@@@1@@Z
	??0?$_Alloc_construct_ptr@V?$allocator@U?$_Tree_node@U?$pair@$$CBW4ZydisRegister_@@W41@@std@@PEAX@std@@@std@@@std@@QEAA@AEAV?$allocator@U?$_Tree_node@U?$pair@$$CBW4ZydisRegister_@@W41@@std@@PEAX@std@@@1@@Z
	??0?$_Alloc_construct_ptr@V?$allocator@U?$_Tree_node@V?$basic_string@DU?$char_traits@D@std@@V?$allocator@D@2@@std@@PEAX@std@@@std@@@std@@QEAA@AEAV?$allocator@U?$_Tree_node@V?$basic_string@DU?$char_traits@D@std@@V?$allocator@D@2@@std@@PEAX@std@@@1@@Z
	??0?$_Fillobj@D@std@@QEAA@D@Z
	??0?$_Func_base@XAEAVAssembler@x86@_abi_1_10@asmjit@@@std@@QEAA@XZ
	??0?$_Func_class@XAEAVAssembler@x86@_abi_1_10@asmjit@@@std@@QEAA@XZ
	??0?$_Func_class@_NPEAU_EXCEPTION_POINTERS@@PEAK@std@@QEAA@XZ
	??0?$_Hash@V?$_Umap_traits@_KV?$shared_ptr@VFBAllocator@PLH@@@std@@V?$_Uhash_compare@_KU?$hash@_K@std@@U?$equal_to@_K@2@@2@V?$allocator@U?$pair@$$CB_KV?$shared_ptr@VFBAllocator@PLH@@@std@@@std@@@2@$0A@@std@@@std@@IEAA@AEBV?$_Uhash_compare@_KU?$hash@_K@std@@U?$equal_to@_K@2@@1@AEBV?$allocator@U?$pair@$$CB_KV?$shared_ptr@VFBAllocator@PLH@@@std@@@std@@@1@@Z
	??0?$_Hash@V?$_Umap_traits@_KV?$vector@VInstruction@PLH@@V?$allocator@VInstruction@PLH@@@std@@@std@@V?$_Uhash_compare@_KU?$hash@_K@std@@U?$equal_to@_K@2@@2@V?$allocator@U?$pair@$$CB_KV?$vector@VInstruction@PLH@@V?$allocator@VInstruction@PLH@@@std@@@std@@@std@@@2@$0A@@std@@@std@@IEAA@AEBV?$_Uhash_compare@_KU?$hash@_K@std@@U?$equal_to@_K@2@@1@AEBV?$allocator@U?$pair@$$CB_KV?$vector@VInstruction@PLH@@V?$allocator@VInstruction@PLH@@@std@@@std@@@std@@@1@@Z
	??0?$_Hash@V?$_Uset_traits@UAVehHookImpEntry@PLH@@V?$_Uhash_compare@UAVehHookImpEntry@PLH@@U?$hash@UAVehHookImpEntry@PLH@@@std@@U?$equal_to@UAVehHookImpEntry@PLH@@@4@@std@@V?$allocator@UAVehHookImpEntry@PLH@@@4@$0A@@std@@@std@@IEAA@AEBV?$_Uhash_compare@UAVehHookImpEntry@PLH@@U?$hash@UAVehHookImpEntry@PLH@@@std@@U?$equal_to@UAVehHookImpEntry@PLH@@@4@@1@AEBV?$allocator@UAVehHookImpEntry@PLH@@@1@@Z
	??0?$_List_const_iterator@V?$_List_val@U?$_List_simple_types@U?$pair@$$CB_KV?$shared_ptr@VFBAllocator@PLH@@@std@@@std@@@std@@@std@@@std@@QEAA@PEAU?$_List_node@U?$pair@$$CB_KV?$shared_ptr@VFBAllocator@PLH@@@std@@@std@@PEAX@1@PEBV?$_List_val@U?$_List_simple_types@U?$pair@$$CB_KV?$shared_ptr@VFBAllocator@PLH@@@std@@@std@@@std@@@1@@Z
	??0?$_List_const_iterator@V?$_List_val@U?$_List_simple_types@U?$pair@$$CB_KV?$vector@VInstruction@PLH@@V?$allocator@VInstruction@PLH@@@std@@@std@@@std@@@std@@@std@@@std@@QEAA@PEAU?$_List_node@U?$pair@$$CB_KV?$vector@VInstruction@PLH@@V?$allocator@VInstruction@PLH@@@std@@@std@@@std@@PEAX@1@PEBV?$_List_val@U?$_List_simple_types@U?$pair@$$CB_KV?$vector@VInstruction@PLH@@V?$allocator@VInstruction@PLH@@@std@@@std@@@std@@@std@@@1@@Z
	??0?$_List_const_iterator@V?$_List_val@U?$_List_simple_types@UAVehHookImpEntry@PLH@@@std@@@std@@@std@@QEAA@PEAU?$_List_node@UAVehHookImpEntry@PLH@@PEAX@1@PEBV?$_List_val@U?$_List_simple_types@UAVehHookImpEntry@PLH@@@std@@@1@@Z
	??0?$_List_iterator@V?$_List_val@U?$_List_simple_types@U?$pair@$$CB_KV?$shared_ptr@VFBAllocator@PLH@@@std@@@std@@@std@@@std@@@std@@QEAA@PEAU?$_List_node@U?$pair@$$CB_KV?$shared_ptr@VFBAllocator@PLH@@@std@@@std@@PEAX@1@PEBV?$_List_val@U?$_List_simple_types@U?$pair@$$CB_KV?$shared_ptr@VFBAllocator@PLH@@@std@@@std@@@std@@@1@@Z
	??0?$_List_iterator@V?$_List_val@U?$_List_simple_types@U?$pair@$$CB_KV?$vector@VInstruction@PLH@@V?$allocator@VInstruction@PLH@@@std@@@std@@@std@@@std@@@std@@@std@@QEAA@PEAU?$_List_node@U?$pair@$$CB_KV?$vector@VInstruction@PLH@@V?$allocator@VInstruction@PLH@@@std@@@std@@@std@@PEAX@1@PEBV?$_List_val@U?$_List_simple_types@U?$pair@$$CB_KV?$vector@VInstruction@PLH@@V?$allocator@VInstruction@PLH@@@std@@@std@@@std@@@std@@@1@@Z
	??0?$_List_iterator@V?$_List_val@U?$_List_simple_types@UAVehHookImpEntry@PLH@@@std@@@std@@@std@@QEAA@PEAU?$_List_node@UAVehHookImpEntry@PLH@@PEAX@1@PEBV?$_List_val@U?$_List_simple_types@UAVehHookImpEntry@PLH@@@std@@@1@@Z
	??0?$_List_unchecked_const_iterator@V?$_List_val@U?$_List_simple_types@U?$pair@$$CB_KV?$shared_ptr@VFBAllocator@PLH@@@std@@@std@@@std@@@std@@U_Iterator_base0@2@@std@@QEAA@PEAU?$_List_node@U?$pair@$$CB_KV?$shared_ptr@VFBAllocator@PLH@@@std@@@std@@PEAX@1@PEBV?$_List_val@U?$_List_simple_types@U?$pair@$$CB_KV?$shared_ptr@VFBAllocator@PLH@@@std@@@std@@@std@@@1@@Z
	??0?$_List_unchecked_const_iterator@V?$_List_val@U?$_List_simple_types@U?$pair@$$CB_KV?$vector@VInstruction@PLH@@V?$allocator@VInstruction@PLH@@@std@@@std@@@std@@@std@@@std@@U_Iterator_base0@2@@std@@QEAA@PEAU?$_List_node@U?$pair@$$CB_KV?$vector@VInstruction@PLH@@V?$allocator@VInstruction@PLH@@@std@@@std@@@std@@PEAX@1@PEBV?$_List_val@U?$_List_simple_types@U?$pair@$$CB_KV?$vector@VInstruction@PLH@@V?$allocator@VInstruction@PLH@@@std@@@std@@@std@@@std@@@1@@Z
	??0?$_List_unchecked_const_iterator@V?$_List_val@U?$_List_simple_types@UAVehHookImpEntry@PLH@@@std@@@std@@U_Iterator_base0@2@@std@@QEAA@PEAU?$_List_node@UAVehHookImpEntry@PLH@@PEAX@1@PEBV?$_List_val@U?$_List_simple_types@UAVehHookImpEntry@PLH@@@std@@@1@@Z
	??0?$_List_unchecked_iterator@V?$_List_val@U?$_List_simple_types@U?$pair@$$CB_KV?$shared_ptr@VFBAllocator@PLH@@@std@@@std@@@std@@@std@@@std@@QEAA@PEAU?$_List_node@U?$pair@$$CB_KV?$shared_ptr@VFBAllocator@PLH@@@std@@@std@@PEAX@1@PEBV?$_List_val@U?$_List_simple_types@U?$pair@$$CB_KV?$shared_ptr@VFBAllocator@PLH@@@std@@@std@@@std@@@1@@Z
	??0?$_List_unchecked_iterator@V?$_List_val@U?$_List_simple_types@U?$pair@$$CB_KV?$vector@VInstruction@PLH@@V?$allocator@VInstruction@PLH@@@std@@@std@@@std@@@std@@@std@@@std@@QEAA@PEAU?$_List_node@U?$pair@$$CB_KV?$vector@VInstruction@PLH@@V?$allocator@VInstruction@PLH@@@std@@@std@@@std@@PEAX@1@PEBV?$_List_val@U?$_List_simple_types@U?$pair@$$CB_KV?$vector@VInstruction@PLH@@V?$allocator@VInstruction@PLH@@@std@@@std@@@std@@@std@@@1@@Z
	??0?$_List_unchecked_iterator@V?$_List_val@U?$_List_simple_types@UAVehHookImpEntry@PLH@@@std@@@std@@@std@@QEAA@PEAU?$_List_node@UAVehHookImpEntry@PLH@@PEAX@1@PEBV?$_List_val@U?$_List_simple_types@UAVehHookImpEntry@PLH@@@std@@@1@@Z
	??0?$_List_val@U?$_List_simple_types@U?$pair@$$CB_KV?$shared_ptr@VFBAllocator@PLH@@@std@@@std@@@std@@@std@@QEAA@XZ
	??0?$_List_val@U?$_List_simple_types@U?$pair@$$CB_KV?$vector@VInstruction@PLH@@V?$allocator@VInstruction@PLH@@@std@@@std@@@std@@@std@@@std@@QEAA@XZ
	??0?$_List_val@U?$_List_simple_types@UAVehHookImpEntry@PLH@@@std@@@std@@QEAA@XZ
	??0?$_Non_trivial_copy@U?$_Optional_construct_base@UTranslationResult@PLH@@@std@@@std@@QEAA@XZ
	??0?$_Non_trivial_copy@U?$_Optional_construct_base@V?$vector@VInstruction@PLH@@V?$allocator@VInstruction@PLH@@@std@@@std@@@std@@@std@@QEAA@XZ
	??0?$_Non_trivial_copy_assign@U?$_Optional_construct_base@UTranslationResult@PLH@@@std@@UTranslationResult@PLH@@@std@@QEAA@XZ
	??0?$_Non_trivial_copy_assign@U?$_Optional_construct_base@V?$vector@VInstruction@PLH@@V?$allocator@VInstruction@PLH@@@std@@@std@@@std@@V?$vector@VInstruction@PLH@@V?$allocator@VInstruction@PLH@@@std@@@2@@std@@QEAA@XZ
	??0?$_Non_trivial_move@U?$_Optional_construct_base@UTranslationResult@PLH@@@std@@UTranslationResult@PLH@@@std@@QEAA@XZ
	??0?$_Non_trivial_move@U?$_Optional_construct_base@V?$vector@VInstruction@PLH@@V?$allocator@VInstruction@PLH@@@std@@@std@@@std@@V?$vector@VInstruction@PLH@@V?$allocator@VInstruction@PLH@@@std@@@2@@std@@QEAA@XZ
	??0?$_Non_trivial_move_assign@U?$_Optional_construct_base@UTranslationResult@PLH@@@std@@UTranslationResult@PLH@@@std@@QEAA@XZ
	??0?$_Non_trivial_move_assign@U?$_Optional_construct_base@V?$vector@VInstruction@PLH@@V?$allocator@VInstruction@PLH@@@std@@@std@@@std@@V?$vector@VInstruction@PLH@@V?$allocator@VInstruction@PLH@@@std@@@2@@std@@QEAA@XZ
	??0?$_Optional_construct_base@UTranslationResult@PLH@@@std@@QEAA@XZ
	??0?$_Optional_construct_base@V?$vector@VInstruction@PLH@@V?$allocator@VInstruction@PLH@@@std@@@std@@@std@@QEAA@XZ
	??0?$_Optional_construct_base@_K@std@@QEAA@XZ
	??0?$_Optional_destruct_base@UTranslationResult@PLH@@$0A@@std@@QEAA@XZ
	??0?$_Optional_destruct_base@V?$vector@VInstruction@PLH@@V?$allocator@VInstruction@PLH@@@std@@@std@@$0A@@std@@QEAA@XZ
	??0?$_Optional_destruct_base@_K$00@std@@QEAA@XZ
	??0?$_Ptr_base@VFBAllocator@PLH@@@std@@IEAA@XZ
	??0?$_Ptr_base@VLogger@PLH@@@std@@IEAA@XZ
	??0?$_String_val@U?$_Simple_types@D@std@@@std@@QEAA@XZ
	??0?$_String_val@U?$_Simple_types@_W@std@@@std@@QEAA@XZ
	??0?$_Tree@V?$_Tmap_traits@G_KU?$less@G@std@@V?$allocator@U?$pair@$$CBG_K@std@@@2@$0A@@std@@@std@@QEAA@AEBU?$less@G@1@@Z
	??0?$_Tree@V?$_Tmap_traits@V?$basic_string@DU?$char_traits@D@std@@V?$allocator@D@2@@std@@V12@U?$less@V?$basic_string@DU?$char_traits@D@std@@V?$allocator@D@2@@std@@@2@V?$allocator@U?$pair@$$CBV?$basic_string@DU?$char_traits@D@std@@V?$allocator@D@2@@std@@V12@@std@@@2@$0A@@std@@@std@@QEAA@AEBU?$less@V?$basic_string@DU?$char_traits@D@std@@V?$allocator@D@2@@std@@@1@@Z
	??0?$_Tree@V?$_Tmap_traits@W4ZydisRegisterClass_@@W4ZydisRegister_@@U?$less@W4ZydisRegisterClass_@@@std@@V?$allocator@U?$pair@$$CBW4ZydisRegisterClass_@@W4ZydisRegister_@@@std@@@4@$0A@@std@@@std@@QEAA@AEBU?$less@W4ZydisRegisterClass_@@@1@@Z
	??0?$_Tree@V?$_Tmap_traits@W4ZydisRegister_@@W41@U?$less@W4ZydisRegister_@@@std@@V?$allocator@U?$pair@$$CBW4ZydisRegister_@@W41@@std@@@3@$0A@@std@@@std@@QEAA@AEBU?$less@W4ZydisRegister_@@@1@@Z
	??0?$_Tree@V?$_Tset_traits@V?$basic_string@DU?$char_traits@D@std@@V?$allocator@D@2@@std@@U?$less@V?$basic_string@DU?$char_traits@D@std@@V?$allocator@D@2@@std@@@2@V?$allocator@V?$basic_string@DU?$char_traits@D@std@@V?$allocator@D@2@@std@@@2@$0A@@std@@@std@@QEAA@AEBU?$less@V?$basic_string@DU?$char_traits@D@std@@V?$allocator@D@2@@std@@@1@@Z
	??0?$_Tree_head_scoped_ptr@V?$allocator@U?$_Tree_node@U?$pair@$$CBG_K@std@@PEAX@std@@@std@@V?$_Tree_val@U?$_Tree_simple_types@U?$pair@$$CBG_K@std@@@std@@@2@@std@@QEAA@AEAV?$allocator@U?$_Tree_node@U?$pair@$$CBG_K@std@@PEAX@std@@@1@AEAV?$_Tree_val@U?$_Tree_simple_types@U?$pair@$$CBG_K@std@@@std@@@1@@Z
	??0?$_Tree_temp_node_alloc@V?$allocator@U?$_Tree_node@U?$pair@$$CBG_K@std@@PEAX@std@@@std@@@std@@QEAA@AEAV?$allocator@U?$_Tree_node@U?$pair@$$CBG_K@std@@PEAX@std@@@1@@Z
	??0?$_Tree_temp_node_alloc@V?$allocator@U?$_Tree_node@U?$pair@$$CBV?$basic_string@DU?$char_traits@D@std@@V?$allocator@D@2@@std@@V12@@std@@PEAX@std@@@std@@@std@@QEAA@AEAV?$allocator@U?$_Tree_node@U?$pair@$$CBV?$basic_string@DU?$char_traits@D@std@@V?$allocator@D@2@@std@@V12@@std@@PEAX@std@@@1@@Z
	??0?$_Tree_temp_node_alloc@V?$allocator@U?$_Tree_node@U?$pair@$$CBW4ZydisRegisterClass_@@W4ZydisRegister_@@@std@@PEAX@std@@@std@@@std@@QEAA@AEAV?$allocator@U?$_Tree_node@U?$pair@$$CBW4ZydisRegisterClass_@@W4ZydisRegister_@@@std@@PEAX@std@@@1@@Z
	??0?$_Tree_temp_node_alloc@V?$allocator@U?$_Tree_node@U?$pair@$$CBW4ZydisRegister_@@W41@@std@@PEAX@std@@@std@@@std@@QEAA@AEAV?$allocator@U?$_Tree_node@U?$pair@$$CBW4ZydisRegister_@@W41@@std@@PEAX@std@@@1@@Z
	??0?$_Tree_temp_node_alloc@V?$allocator@U?$_Tree_node@V?$basic_string@DU?$char_traits@D@std@@V?$allocator@D@2@@std@@PEAX@std@@@std@@@std@@QEAA@AEAV?$allocator@U?$_Tree_node@V?$basic_string@DU?$char_traits@D@std@@V?$allocator@D@2@@std@@PEAX@std@@@1@@Z
	??0?$_Tree_unchecked_const_iterator@V?$_Tree_val@U?$_Tree_simple_types@U?$pair@$$CBG_K@std@@@std@@@std@@U_Iterator_base0@2@@std@@QEAA@PEAU?$_Tree_node@U?$pair@$$CBG_K@std@@PEAX@1@PEBV?$_Tree_val@U?$_Tree_simple_types@U?$pair@$$CBG_K@std@@@std@@@1@@Z
	??0?$_Tree_unchecked_const_iterator@V?$_Tree_val@U?$_Tree_simple_types@U?$pair@$$CBV?$basic_string@DU?$char_traits@D@std@@V?$allocator@D@2@@std@@V12@@std@@@std@@@std@@U_Iterator_base0@2@@std@@QEAA@PEAU?$_Tree_node@U?$pair@$$CBV?$basic_string@DU?$char_traits@D@std@@V?$allocator@D@2@@std@@V12@@std@@PEAX@1@PEBV?$_Tree_val@U?$_Tree_simple_types@U?$pair@$$CBV?$basic_string@DU?$char_traits@D@std@@V?$allocator@D@2@@std@@V12@@std@@@std@@@1@@Z
	??0?$_Tree_unchecked_const_iterator@V?$_Tree_val@U?$_Tree_simple_types@U?$pair@$$CBW4ZydisRegisterClass_@@W4ZydisRegister_@@@std@@@std@@@std@@U_Iterator_base0@2@@std@@QEAA@PEAU?$_Tree_node@U?$pair@$$CBW4ZydisRegisterClass_@@W4ZydisRegister_@@@std@@PEAX@1@PEBV?$_Tree_val@U?$_Tree_simple_types@U?$pair@$$CBW4ZydisRegisterClass_@@W4ZydisRegister_@@@std@@@std@@@1@@Z
	??0?$_Tree_unchecked_const_iterator@V?$_Tree_val@U?$_Tree_simple_types@U?$pair@$$CBW4ZydisRegister_@@W41@@std@@@std@@@std@@U_Iterator_base0@2@@std@@QEAA@PEAU?$_Tree_node@U?$pair@$$CBW4ZydisRegister_@@W41@@std@@PEAX@1@PEBV?$_Tree_val@U?$_Tree_simple_types@U?$pair@$$CBW4ZydisRegister_@@W41@@std@@@std@@@1@@Z
	??0?$_Tree_unchecked_const_iterator@V?$_Tree_val@U?$_Tree_simple_types@V?$basic_string@DU?$char_traits@D@std@@V?$allocator@D@2@@std@@@std@@@std@@U_Iterator_base0@2@@std@@QEAA@PEAU?$_Tree_node@V?$basic_string@DU?$char_traits@D@std@@V?$allocator@D@2@@std@@PEAX@1@PEBV?$_Tree_val@U?$_Tree_simple_types@V?$basic_string@DU?$char_traits@D@std@@V?$allocator@D@2@@std@@@std@@@1@@Z
	??0?$_Tree_unchecked_iterator@V?$_Tree_val@U?$_Tree_simple_types@U?$pair@$$CBG_K@std@@@std@@@std@@@std@@QEAA@PEAU?$_Tree_node@U?$pair@$$CBG_K@std@@PEAX@1@PEBV?$_Tree_val@U?$_Tree_simple_types@U?$pair@$$CBG_K@std@@@std@@@1@@Z
	??0?$_Tree_val@U?$_Tree_simple_types@U?$pair@$$CBG_K@std@@@std@@@std@@QEAA@XZ
	??0?$_Tree_val@U?$_Tree_simple_types@U?$pair@$$CBV?$basic_string@DU?$char_traits@D@std@@V?$allocator@D@2@@std@@V12@@std@@@std@@@std@@QEAA@XZ
	??0?$_Tree_val@U?$_Tree_simple_types@U?$pair@$$CBW4ZydisRegisterClass_@@W4ZydisRegister_@@@std@@@std@@@std@@QEAA@XZ
	??0?$_Tree_val@U?$_Tree_simple_types@U?$pair@$$CBW4ZydisRegister_@@W41@@std@@@std@@@std@@QEAA@XZ
	??0?$_Tree_val@U?$_Tree_simple_types@V?$basic_string@DU?$char_traits@D@std@@V?$allocator@D@2@@std@@@std@@@std@@QEAA@XZ
	??0?$_Uhash_compare@UAVehHookImpEntry@PLH@@U?$hash@UAVehHookImpEntry@PLH@@@std@@U?$equal_to@UAVehHookImpEntry@PLH@@@4@@std@@QEAA@XZ
	??0?$_Uhash_compare@_KU?$hash@_K@std@@U?$equal_to@_K@2@@std@@QEAA@XZ
	??0?$_Umap_traits@_KV?$shared_ptr@VFBAllocator@PLH@@@std@@V?$_Uhash_compare@_KU?$hash@_K@std@@U?$equal_to@_K@2@@2@V?$allocator@U?$pair@$$CB_KV?$shared_ptr@VFBAllocator@PLH@@@std@@@std@@@2@$0A@@std@@QEAA@AEBV?$_Uhash_compare@_KU?$hash@_K@std@@U?$equal_to@_K@2@@1@@Z
	??0?$_Umap_traits@_KV?$vector@VInstruction@PLH@@V?$allocator@VInstruction@PLH@@@std@@@std@@V?$_Uhash_compare@_KU?$hash@_K@std@@U?$equal_to@_K@2@@2@V?$allocator@U?$pair@$$CB_KV?$vector@VInstruction@PLH@@V?$allocator@VInstruction@PLH@@@std@@@std@@@std@@@2@$0A@@std@@QEAA@AEBV?$_Uhash_compare@_KU?$hash@_K@std@@U?$equal_to@_K@2@@1@@Z
	??0?$_Uninitialized_backout@PEAV?$_List_unchecked_const_iterator@V?$_List_val@U?$_List_simple_types@UAVehHookImpEntry@PLH@@@std@@@std@@U_Iterator_base0@2@@std@@@std@@QEAA@PEAV?$_List_unchecked_const_iterator@V?$_List_val@U?$_List_simple_types@UAVehHookImpEntry@PLH@@@std@@@std@@U_Iterator_base0@2@@1@@Z
	??0?$_Uninitialized_backout@PEAV?$_List_unchecked_iterator@V?$_List_val@U?$_List_simple_types@U?$pair@$$CB_KV?$shared_ptr@VFBAllocator@PLH@@@std@@@std@@@std@@@std@@@std@@@std@@QEAA@PEAV?$_List_unchecked_iterator@V?$_List_val@U?$_List_simple_types@U?$pair@$$CB_KV?$shared_ptr@VFBAllocator@PLH@@@std@@@std@@@std@@@std@@@1@@Z
	??0?$_Uninitialized_backout@PEAV?$_List_unchecked_iterator@V?$_List_val@U?$_List_simple_types@U?$pair@$$CB_KV?$vector@VInstruction@PLH@@V?$allocator@VInstruction@PLH@@@std@@@std@@@std@@@std@@@std@@@std@@@std@@QEAA@PEAV?$_List_unchecked_iterator@V?$_List_val@U?$_List_simple_types@U?$pair@$$CB_KV?$vector@VInstruction@PLH@@V?$allocator@VInstruction@PLH@@@std@@@std@@@std@@@std@@@std@@@1@@Z
	??0?$_Uninitialized_backout_al@V?$allocator@E@std@@@std@@QEAA@PEAEAEAV?$allocator@E@1@@Z
	??0?$_Uninitialized_backout_al@V?$allocator@UError@PLH@@@std@@@std@@QEAA@PEAUError@PLH@@AEAV?$allocator@UError@PLH@@@1@@Z
	??0?$_Uninitialized_backout_al@V?$allocator@V?$basic_string@DU?$char_traits@D@std@@V?$allocator@D@2@@std@@@std@@@std@@QEAA@PEAV?$basic_string@DU?$char_traits@D@std@@V?$allocator@D@2@@1@AEAV?$allocator@V?$basic_string@DU?$char_traits@D@std@@V?$allocator@D@2@@std@@@1@@Z
	??0?$_Uninitialized_backout_al@V?$allocator@V?$shared_ptr@VFBAllocator@PLH@@@std@@@std@@@std@@QEAA@PEAV?$shared_ptr@VFBAllocator@PLH@@@1@AEAV?$allocator@V?$shared_ptr@VFBAllocator@PLH@@@std@@@1@@Z
	??0?$_Uninitialized_backout_al@V?$allocator@VEffect@@@std@@@std@@QEAA@PEAVEffect@@AEAV?$allocator@VEffect@@@1@@Z
	??0?$_Uninitialized_backout_al@V?$allocator@VInstruction@PLH@@@std@@@std@@QEAA@PEAVInstruction@PLH@@AEAV?$allocator@VInstruction@PLH@@@1@@Z
	??0?$_Uninitialized_backout_al@V?$allocator@VReg@x86@_abi_1_10@asmjit@@@std@@@std@@QEAA@PEAVReg@x86@_abi_1_10@asmjit@@AEAV?$allocator@VReg@x86@_abi_1_10@asmjit@@@1@@Z
	??0?$_Uninitialized_backout_al@V?$allocator@W4OperandType@Instruction@PLH@@@std@@@std@@QEAA@PEAW4OperandType@Instruction@PLH@@AEAV?$allocator@W4OperandType@Instruction@PLH@@@1@@Z
	??0?$_Uninitialized_backout_al@V?$allocator@W4TypeId@_abi_1_10@asmjit@@@std@@@std@@QEAA@PEAW4TypeId@_abi_1_10@asmjit@@AEAV?$allocator@W4TypeId@_abi_1_10@asmjit@@@1@@Z
	??0?$_Uset_traits@UAVehHookImpEntry@PLH@@V?$_Uhash_compare@UAVehHookImpEntry@PLH@@U?$hash@UAVehHookImpEntry@PLH@@@std@@U?$equal_to@UAVehHookImpEntry@PLH@@@4@@std@@V?$allocator@UAVehHookImpEntry@PLH@@@4@$0A@@std@@QEAA@AEBV?$_Uhash_compare@UAVehHookImpEntry@PLH@@U?$hash@UAVehHookImpEntry@PLH@@@std@@U?$equal_to@UAVehHookImpEntry@PLH@@@4@@1@@Z
	??0?$_Vector_const_iterator@V?$_Vector_val@U?$_Simple_types@V?$basic_string@DU?$char_traits@D@std@@V?$allocator@D@2@@std@@@std@@@std@@@std@@QEAA@PEAV?$basic_string@DU?$char_traits@D@std@@V?$allocator@D@2@@1@PEBU_Container_base0@1@@Z
	??0?$_Vector_const_iterator@V?$_Vector_val@U?$_Simple_types@V?$shared_ptr@VFBAllocator@PLH@@@std@@@std@@@std@@@std@@QEAA@PEAV?$shared_ptr@VFBAllocator@PLH@@@1@PEBU_Container_base0@1@@Z
	??0?$_Vector_const_iterator@V?$_Vector_val@U?$_Simple_types@VInstruction@PLH@@@std@@@std@@@std@@QEAA@PEAVInstruction@PLH@@PEBU_Container_base0@1@@Z
	??0?$_Vector_iterator@V?$_Vector_val@U?$_Simple_types@V?$basic_string@DU?$char_traits@D@std@@V?$allocator@D@2@@std@@@std@@@std@@@std@@QEAA@PEAV?$basic_string@DU?$char_traits@D@std@@V?$allocator@D@2@@1@PEBU_Container_base0@1@@Z
	??0?$_Vector_iterator@V?$_Vector_val@U?$_Simple_types@V?$shared_ptr@VFBAllocator@PLH@@@std@@@std@@@std@@@std@@QEAA@PEAV?$shared_ptr@VFBAllocator@PLH@@@1@PEBU_Container_base0@1@@Z
	??0?$_Vector_iterator@V?$_Vector_val@U?$_Simple_types@VInstruction@PLH@@@std@@@std@@@std@@QEAA@PEAVInstruction@PLH@@PEBU_Container_base0@1@@Z
	??0?$_Vector_val@U?$_Simple_types@E@std@@@std@@QEAA@PEAE00@Z
	??0?$_Vector_val@U?$_Simple_types@E@std@@@std@@QEAA@XZ
	??0?$_Vector_val@U?$_Simple_types@UError@PLH@@@std@@@std@@QEAA@XZ
	??0?$_Vector_val@U?$_Simple_types@V?$_List_unchecked_const_iterator@V?$_List_val@U?$_List_simple_types@UAVehHookImpEntry@PLH@@@std@@@std@@U_Iterator_base0@2@@std@@@std@@@std@@QEAA@XZ
	??0?$_Vector_val@U?$_Simple_types@V?$_List_unchecked_iterator@V?$_List_val@U?$_List_simple_types@U?$pair@$$CB_KV?$shared_ptr@VFBAllocator@PLH@@@std@@@std@@@std@@@std@@@std@@@std@@@std@@QEAA@XZ
	??0?$_Vector_val@U?$_Simple_types@V?$_List_unchecked_iterator@V?$_List_val@U?$_List_simple_types@U?$pair@$$CB_KV?$vector@VInstruction@PLH@@V?$allocator@VInstruction@PLH@@@std@@@std@@@std@@@std@@@std@@@std@@@std@@@std@@QEAA@XZ
	??0?$_Vector_val@U?$_Simple_types@V?$basic_string@DU?$char_traits@D@std@@V?$allocator@D@2@@std@@@std@@@std@@QEAA@PEAV?$basic_string@DU?$char_traits@D@std@@V?$allocator@D@2@@1@00@Z
	??0?$_Vector_val@U?$_Simple_types@V?$basic_string@DU?$char_traits@D@std@@V?$allocator@D@2@@std@@@std@@@std@@QEAA@XZ
	??0?$_Vector_val@U?$_Simple_types@V?$shared_ptr@VFBAllocator@PLH@@@std@@@std@@@std@@QEAA@XZ
	??0?$_Vector_val@U?$_Simple_types@VInstruction@PLH@@@std@@@std@@QEAA@PEAVInstruction@PLH@@00@Z
	??0?$_Vector_val@U?$_Simple_types@VInstruction@PLH@@@std@@@std@@QEAA@XZ
	??0?$_Vector_val@U?$_Simple_types@VReg@x86@_abi_1_10@asmjit@@@std@@@std@@QEAA@XZ
	??0?$_Vector_val@U?$_Simple_types@W4OperandType@Instruction@PLH@@@std@@@std@@QEAA@PEAW4OperandType@Instruction@PLH@@00@Z
	??0?$_Vector_val@U?$_Simple_types@W4OperandType@Instruction@PLH@@@std@@@std@@QEAA@XZ
	??0?$_Vector_val@U?$_Simple_types@W4TypeId@_abi_1_10@asmjit@@@std@@@std@@QEAA@XZ
	??0?$allocator@D@std@@QEAA@XZ
	??0?$allocator@E@std@@QEAA@XZ
	??0?$allocator@U?$_Tree_node@U?$pair@$$CBG_K@std@@PEAX@std@@@std@@QEAA@XZ
	??0?$allocator@U?$_Tree_node@U?$pair@$$CBV?$basic_string@DU?$char_traits@D@std@@V?$allocator@D@2@@std@@V12@@std@@PEAX@std@@@std@@QEAA@XZ
	??0?$allocator@U?$_Tree_node@U?$pair@$$CBW4ZydisRegisterClass_@@W4ZydisRegister_@@@std@@PEAX@std@@@std@@QEAA@XZ
	??0?$allocator@U?$_Tree_node@U?$pair@$$CBW4ZydisRegister_@@W41@@std@@PEAX@std@@@std@@QEAA@XZ
	??0?$allocator@U?$_Tree_node@V?$basic_string@DU?$char_traits@D@std@@V?$allocator@D@2@@std@@PEAX@std@@@std@@QEAA@XZ
	??0?$allocator@U?$pair@$$CB_KV?$shared_ptr@VFBAllocator@PLH@@@std@@@std@@@std@@QEAA@XZ
	??0?$allocator@U?$pair@$$CB_KV?$vector@VInstruction@PLH@@V?$allocator@VInstruction@PLH@@@std@@@std@@@std@@@std@@QEAA@XZ
	??0?$allocator@UAVehHookImpEntry@PLH@@@std@@QEAA@XZ
	??0?$allocator@UError@PLH@@@std@@QEAA@XZ
	??0?$allocator@V?$basic_string@DU?$char_traits@D@std@@V?$allocator@D@2@@std@@@std@@QEAA@XZ
	??0?$allocator@V?$shared_ptr@VFBAllocator@PLH@@@std@@@std@@QEAA@XZ
	??0?$allocator@VInstruction@PLH@@@std@@QEAA@XZ
	??0?$allocator@VReg@x86@_abi_1_10@asmjit@@@std@@QEAA@XZ
	??0?$allocator@W4OperandType@Instruction@PLH@@@std@@QEAA@XZ
	??0?$allocator@W4TypeId@_abi_1_10@asmjit@@@std@@QEAA@XZ
	??0?$allocator@_W@std@@QEAA@XZ
	??0?$basic_ostringstream@DU?$char_traits@D@std@@V?$allocator@D@2@@std@@QEAA@XZ
	??0?$basic_string@DU?$char_traits@D@std@@V?$allocator@D@2@@std@@QEAA@$$QEAV01@@Z
	??0?$basic_string@DU?$char_traits@D@std@@V?$allocator@D@2@@std@@QEAA@AEBV01@@Z
	??0?$basic_string@DU?$char_traits@D@std@@V?$allocator@D@2@@std@@QEAA@AEBV?$allocator@D@1@@Z
	??0?$basic_string@DU?$char_traits@D@std@@V?$allocator@D@2@@std@@QEAA@QEBD@Z
	??0?$basic_string@DU?$char_traits@D@std@@V?$allocator@D@2@@std@@QEAA@U_String_constructor_concat_tag@1@AEBV01@QEBD_K23@Z
	??0?$basic_string@DU?$char_traits@D@std@@V?$allocator@D@2@@std@@QEAA@XZ
	??0?$basic_string@_WU?$char_traits@_W@std@@V?$allocator@_W@2@@std@@QEAA@$$QEAV01@@Z
	??0?$basic_string@_WU?$char_traits@_W@std@@V?$allocator@_W@2@@std@@QEAA@AEBV01@@Z
	??0?$basic_string@_WU?$char_traits@_W@std@@V?$allocator@_W@2@@std@@QEAA@QEB_W@Z
	??0?$basic_string@_WU?$char_traits@_W@std@@V?$allocator@_W@2@@std@@QEAA@QEB_W_K@Z
	??0?$basic_string_view@_WU?$char_traits@_W@std@@@std@@QEAA@QEB_W_K@Z
	??0?$basic_string_view@_WUci_wchar_traits@PLH@@@std@@QEAA@QEB_W_K@Z
	??0?$basic_stringbuf@DU?$char_traits@D@std@@V?$allocator@D@2@@std@@QEAA@H@Z
	??0?$basic_stringstream@DU?$char_traits@D@std@@V?$allocator@D@2@@std@@QEAA@XZ
	??0?$fpos@U_Mbstatet@@@std@@QEAA@_J@Z
	??0?$function@$$A6A_NPEAU_EXCEPTION_POINTERS@@PEAK@Z@std@@QEAA@XZ
	??0?$initializer_list@E@std@@QEAA@PEBE0@Z
	??0?$initializer_list@U?$pair@$$CBV?$basic_string@DU?$char_traits@D@std@@V?$allocator@D@2@@std@@V12@@std@@@std@@QEAA@PEBU?$pair@$$CBV?$basic_string@DU?$char_traits@D@std@@V?$allocator@D@2@@std@@V12@@1@0@Z
	??0?$initializer_list@U?$pair@$$CBW4ZydisRegisterClass_@@W4ZydisRegister_@@@std@@@std@@QEAA@PEBU?$pair@$$CBW4ZydisRegisterClass_@@W4ZydisRegister_@@@1@0@Z
	??0?$initializer_list@U?$pair@$$CBW4ZydisRegister_@@W41@@std@@@std@@QEAA@PEBU?$pair@$$CBW4ZydisRegister_@@W41@@1@0@Z
	??0?$initializer_list@V?$basic_string@DU?$char_traits@D@std@@V?$allocator@D@2@@std@@@std@@QEAA@PEBV?$basic_string@DU?$char_traits@D@std@@V?$allocator@D@2@@1@0@Z
	??0?$initializer_list@VInstruction@PLH@@@std@@QEAA@PEBVInstruction@PLH@@0@Z
	??0?$list@U?$pair@$$CB_KV?$shared_ptr@VFBAllocator@PLH@@@std@@@std@@V?$allocator@U?$pair@$$CB_KV?$shared_ptr@VFBAllocator@PLH@@@std@@@std@@@2@@std@@QEAA@AEBV?$allocator@U?$pair@$$CB_KV?$shared_ptr@VFBAllocator@PLH@@@std@@@std@@@1@@Z
	??0?$list@U?$pair@$$CB_KV?$vector@VInstruction@PLH@@V?$allocator@VInstruction@PLH@@@std@@@std@@@std@@V?$allocator@U?$pair@$$CB_KV?$vector@VInstruction@PLH@@V?$allocator@VInstruction@PLH@@@std@@@std@@@std@@@2@@std@@QEAA@AEBV?$allocator@U?$pair@$$CB_KV?$vector@VInstruction@PLH@@V?$allocator@VInstruction@PLH@@@std@@@std@@@std@@@1@@Z
	??0?$list@UAVehHookImpEntry@PLH@@V?$allocator@UAVehHookImpEntry@PLH@@@std@@@std@@QEAA@AEBV?$allocator@UAVehHookImpEntry@PLH@@@1@@Z
	??0?$lock_guard@Vmutex@std@@@std@@QEAA@AEAVmutex@1@@Z
	??0?$map@G_KU?$less@G@std@@V?$allocator@U?$pair@$$CBG_K@std@@@2@@std@@QEAA@AEBV01@@Z
	??0?$map@G_KU?$less@G@std@@V?$allocator@U?$pair@$$CBG_K@std@@@2@@std@@QEAA@XZ
	??0?$map@V?$basic_string@DU?$char_traits@D@std@@V?$allocator@D@2@@std@@V12@U?$less@V?$basic_string@DU?$char_traits@D@std@@V?$allocator@D@2@@std@@@2@V?$allocator@U?$pair@$$CBV?$basic_string@DU?$char_traits@D@std@@V?$allocator@D@2@@std@@V12@@std@@@2@@std@@QEAA@V?$initializer_list@U?$pair@$$CBV?$basic_string@DU?$char_traits@D@std@@V?$allocator@D@2@@std@@V12@@std@@@1@@Z
	??0?$map@W4ZydisRegisterClass_@@W4ZydisRegister_@@U?$less@W4ZydisRegisterClass_@@@std@@V?$allocator@U?$pair@$$CBW4ZydisRegisterClass_@@W4ZydisRegister_@@@std@@@4@@std@@QEAA@V?$initializer_list@U?$pair@$$CBW4ZydisRegisterClass_@@W4ZydisRegister_@@@std@@@1@@Z
	??0?$map@W4ZydisRegister_@@W41@U?$less@W4ZydisRegister_@@@std@@V?$allocator@U?$pair@$$CBW4ZydisRegister_@@W41@@std@@@3@@std@@QEAA@V?$initializer_list@U?$pair@$$CBW4ZydisRegister_@@W41@@std@@@1@@Z
	??0?$optional@UTranslationResult@PLH@@@std@@QEAA@XZ
	??0?$optional@V?$vector@VInstruction@PLH@@V?$allocator@VInstruction@PLH@@@std@@@std@@@std@@QEAA@Unullopt_t@1@@Z
	??0?$optional@_K@std@@QEAA@XZ
	??0?$ostream_iterator@V?$basic_string@DU?$char_traits@D@std@@V?$allocator@D@2@@std@@DU?$char_traits@D@2@@std@@QEAA@AEAV?$basic_ostream@DU?$char_traits@D@std@@@1@QEBD@Z
	??0?$pair@$$CBV?$basic_string@DU?$char_traits@D@std@@V?$allocator@D@2@@std@@V12@@std@@QEAA@AEBU01@@Z
	??0?$reverse_iterator@V?$_Vector_iterator@V?$_Vector_val@U?$_Simple_types@VInstruction@PLH@@@std@@@std@@@std@@@std@@QEAA@V?$_Vector_iterator@V?$_Vector_val@U?$_Simple_types@VInstruction@PLH@@@std@@@std@@@1@@Z
	??0?$set@V?$basic_string@DU?$char_traits@D@std@@V?$allocator@D@2@@std@@U?$less@V?$basic_string@DU?$char_traits@D@std@@V?$allocator@D@2@@std@@@2@V?$allocator@V?$basic_string@DU?$char_traits@D@std@@V?$allocator@D@2@@std@@@2@@std@@QEAA@V?$initializer_list@V?$basic_string@DU?$char_traits@D@std@@V?$allocator@D@2@@std@@@1@@Z
	??0?$shared_ptr@VFBAllocator@PLH@@@std@@QEAA@$$QEAV01@@Z
	??0?$shared_ptr@VFBAllocator@PLH@@@std@@QEAA@$$T@Z
	??0?$shared_ptr@VFBAllocator@PLH@@@std@@QEAA@AEBV01@@Z
	??0?$shared_ptr@VFBAllocator@PLH@@@std@@QEAA@XZ
	??0?$shared_ptr@VLogger@PLH@@@std@@QEAA@AEBV01@@Z
	??0?$tuple@$$QEA_K@std@@QEAA@$$QEAV01@@Z
	??0?$tuple@$$V@std@@QEAA@AEBV01@@Z
	??0?$tuple@AEBG@std@@QEAA@$$QEAV01@@Z
	??0?$unordered_map@_KV?$shared_ptr@VFBAllocator@PLH@@@std@@U?$hash@_K@2@U?$equal_to@_K@2@V?$allocator@U?$pair@$$CB_KV?$shared_ptr@VFBAllocator@PLH@@@std@@@std@@@2@@std@@QEAA@XZ
	??0?$unordered_map@_KV?$vector@VInstruction@PLH@@V?$allocator@VInstruction@PLH@@@std@@@std@@U?$hash@_K@2@U?$equal_to@_K@2@V?$allocator@U?$pair@$$CB_KV?$vector@VInstruction@PLH@@V?$allocator@VInstruction@PLH@@@std@@@std@@@std@@@2@@std@@QEAA@XZ
	??0?$unordered_set@UAVehHookImpEntry@PLH@@U?$hash@UAVehHookImpEntry@PLH@@@std@@U?$equal_to@UAVehHookImpEntry@PLH@@@4@V?$allocator@UAVehHookImpEntry@PLH@@@4@@std@@QEAA@XZ
	??0?$vector@EV?$allocator@E@std@@@std@@QEAA@$$QEAV01@@Z
	??0?$vector@EV?$allocator@E@std@@@std@@QEAA@AEBV01@@Z
	??0?$vector@EV?$allocator@E@std@@@std@@QEAA@V?$initializer_list@E@1@AEBV?$allocator@E@1@@Z
	??0?$vector@EV?$allocator@E@std@@@std@@QEAA@XZ
	??0?$vector@EV?$allocator@E@std@@@std@@QEAA@_KAEBV?$allocator@E@1@@Z
	??0?$vector@UError@PLH@@V?$allocator@UError@PLH@@@std@@@std@@QEAA@XZ
	??0?$vector@V?$basic_string@DU?$char_traits@D@std@@V?$allocator@D@2@@std@@V?$allocator@V?$basic_string@DU?$char_traits@D@std@@V?$allocator@D@2@@std@@@2@@std@@QEAA@$$QEAV01@@Z
	??0?$vector@V?$basic_string@DU?$char_traits@D@std@@V?$allocator@D@2@@std@@V?$allocator@V?$basic_string@DU?$char_traits@D@std@@V?$allocator@D@2@@std@@@2@@std@@QEAA@XZ
	??0?$vector@V?$shared_ptr@VFBAllocator@PLH@@@std@@V?$allocator@V?$shared_ptr@VFBAllocator@PLH@@@std@@@2@@std@@QEAA@XZ
	??0?$vector@VInstruction@PLH@@V?$allocator@VInstruction@PLH@@@std@@@std@@QEAA@$$QEAV01@@Z
	??0?$vector@VInstruction@PLH@@V?$allocator@VInstruction@PLH@@@std@@@std@@QEAA@AEBV01@@Z
	??0?$vector@VInstruction@PLH@@V?$allocator@VInstruction@PLH@@@std@@@std@@QEAA@V?$initializer_list@VInstruction@PLH@@@1@AEBV?$allocator@VInstruction@PLH@@@1@@Z
	??0?$vector@VInstruction@PLH@@V?$allocator@VInstruction@PLH@@@std@@@std@@QEAA@XZ
	??0?$vector@VReg@x86@_abi_1_10@asmjit@@V?$allocator@VReg@x86@_abi_1_10@asmjit@@@std@@@std@@QEAA@XZ
	??0?$vector@W4OperandType@Instruction@PLH@@V?$allocator@W4OperandType@Instruction@PLH@@@std@@@std@@QEAA@$$QEAV01@@Z
	??0?$vector@W4OperandType@Instruction@PLH@@V?$allocator@W4OperandType@Instruction@PLH@@@std@@@std@@QEAA@AEBV01@@Z
	??0?$vector@W4OperandType@Instruction@PLH@@V?$allocator@W4OperandType@Instruction@PLH@@@std@@@std@@QEAA@XZ
	??0?$vector@W4TypeId@_abi_1_10@asmjit@@V?$allocator@W4TypeId@_abi_1_10@asmjit@@@std@@@std@@QEAA@XZ
	??0AVehHook@PLH@@QEAA@XZ
	??0AVehHookImpEntry@PLH@@QEAA@_KPEAVAVehHook@1@@Z
	??0BaseMem@_abi_1_10@asmjit@@QEAA@AEBUOperandSignature@12@IIH@Z
	??0BaseMem@_abi_1_10@asmjit@@QEAA@AEBV012@@Z
	??0BaseMem@_abi_1_10@asmjit@@QEAA@UNoInit_@Globals@12@@Z
	??0BaseMem@_abi_1_10@asmjit@@QEAA@XZ
	??0BaseReg@_abi_1_10@asmjit@@QEAA@AEBUOperandSignature@12@I@Z
	??0BaseReg@_abi_1_10@asmjit@@QEAA@AEBV012@@Z
	??0BaseReg@_abi_1_10@asmjit@@QEAA@UNoInit_@Globals@12@@Z
	??0BreakPointHook@PLH@@QEAA@PEBD0@Z
	??0BreakPointHook@PLH@@QEAA@_K0@Z
	??0Detour@PLH@@QEAA@_K0PEA_KW4Mode@1@@Z
	??0EatHook@PLH@@IEAA@V?$basic_string@DU?$char_traits@D@std@@V?$allocator@D@2@@std@@V?$basic_string@_WU?$char_traits@_W@std@@V?$allocator@_W@2@@3@PEAUHINSTANCE__@@_KPEA_K@Z
	??0EatHook@PLH@@QEAA@AEBV?$basic_string@DU?$char_traits@D@std@@V?$allocator@D@2@@std@@AEBV?$basic_string@_WU?$char_traits@_W@std@@V?$allocator@_W@2@@3@PEBDPEA_K@Z
	??0EatHook@PLH@@QEAA@AEBV?$basic_string@DU?$char_traits@D@std@@V?$allocator@D@2@@std@@AEBV?$basic_string@_WU?$char_traits@_W@std@@V?$allocator@_W@2@@3@_KPEA_K@Z
	??0EatHook@PLH@@QEAA@AEBV?$basic_string@DU?$char_traits@D@std@@V?$allocator@D@2@@std@@QEAUHINSTANCE__@@PEBDPEA_K@Z
	??0EatHook@PLH@@QEAA@AEBV?$basic_string@DU?$char_traits@D@std@@V?$allocator@D@2@@std@@QEAUHINSTANCE__@@_KPEA_K@Z
	??0Effect@@QEAA@XZ
	??0Environment@_abi_1_10@asmjit@@QEAA@W4Arch@12@W4SubArch@12@W4Vendor@12@W4Platform@12@W4PlatformABI@12@W4ObjectFormat@12@@Z
	??0Error@PLH@@QEAA@$$QEAU01@@Z
	??0Error@PLH@@QEAA@AEBU01@@Z
	??0ErrorLog@PLH@@QEAA@XZ
	??0FBAllocator@PLH@@QEAA@_K0EE@Z
	??0Gp@x86@_abi_1_10@asmjit@@QEAA@AEBUOperandSignature@23@I@Z
	??0Gp@x86@_abi_1_10@asmjit@@QEAA@AEBV0123@@Z
	??0Gp@x86@_abi_1_10@asmjit@@QEAA@UNoInit_@Globals@23@@Z
	??0HWBreakPointHook@PLH@@QEAA@PEBD0PEAX@Z
	??0HWBreakPointHook@PLH@@QEAA@_K0PEAX@Z
	??0IHook@PLH@@QEAA@XZ
	??0ILCallback@PLH@@QEAA@XZ
	??0IatHook@PLH@@QEAA@AEBV?$basic_string@DU?$char_traits@D@std@@V?$allocator@D@2@@std@@0PEBDPEA_KAEBV?$basic_string@_WU?$char_traits@_W@std@@V?$allocator@_W@2@@3@@Z
	??0IatHook@PLH@@QEAA@AEBV?$basic_string@DU?$char_traits@D@std@@V?$allocator@D@2@@std@@0_KPEA_KAEBV?$basic_string@_WU?$char_traits@_W@std@@V?$allocator@_W@2@@3@@Z
	??0Instruction@PLH@@QEAA@$$QEAV01@@Z
	??0Instruction@PLH@@QEAA@AEBV01@@Z
	??0Instruction@PLH@@QEAA@_KAEBTDisplacement@01@E_N2AEBV?$vector@EV?$allocator@E@std@@@std@@AEBV?$basic_string@DU?$char_traits@D@std@@V?$allocator@D@2@@4@4W4Mode@1@@Z
	??0Instruction@PLH@@QEAA@_KAEBTDisplacement@01@E_N2QEAE_KAEBV?$basic_string@DU?$char_traits@D@std@@V?$allocator@D@2@@std@@5W4Mode@1@@Z
	??0Logger@PLH@@QEAA@XZ
	??0Mem@x86@_abi_1_10@asmjit@@QEAA@AEBV0123@@Z
	??0Mem@x86@_abi_1_10@asmjit@@QEAA@AEBVBaseReg@23@HIUOperandSignature@23@@Z
	??0Mem@x86@_abi_1_10@asmjit@@QEAA@UNoInit_@Globals@23@@Z
	??0Mem@x86@_abi_1_10@asmjit@@QEAA@XZ
	??0MemAccessor@PLH@@QEAA@XZ
	??0MemoryProtector@PLH@@QEAA@_K0W4ProtFlag@1@AEAVMemAccessor@1@_N@Z
	??0Operand@_abi_1_10@asmjit@@QEAA@UInit_@Globals@12@AEBUOperandSignature@12@III@Z
	??0Operand@_abi_1_10@asmjit@@QEAA@UNoInit_@Globals@12@@Z
	??0Operand@_abi_1_10@asmjit@@QEAA@XZ
	??0RangeAllocator@PLH@@QEAA@EE@Z
	??0Reg@x86@_abi_1_10@asmjit@@QEAA@AEBUOperandSignature@23@I@Z
	??0Reg@x86@_abi_1_10@asmjit@@QEAA@AEBV0123@@Z
	??0Reg@x86@_abi_1_10@asmjit@@QEAA@UNoInit_@Globals@23@@Z
	??0Reg@x86@_abi_1_10@asmjit@@QEAA@XZ
	??0StackCanary@PLH@@QEAA@XZ
	??0TranslationResult@PLH@@QEAA@AEBU01@@Z
	??0TranslationResult@PLH@@QEAA@XZ
	??0UID@PLH@@QEAA@J@Z
	??0UID@PLH@@QEAA@XZ
	??0VFuncSwapHook@PLH@@QEAA@PEBDAEBV?$map@G_KU?$less@G@std@@V?$allocator@U?$pair@$$CBG_K@std@@@2@@std@@PEAV23@@Z
	??0VFuncSwapHook@PLH@@QEAA@_KAEBV?$map@G_KU?$less@G@std@@V?$allocator@U?$pair@$$CBG_K@std@@@2@@std@@PEAV23@@Z
	??0VTableSwapHook@PLH@@QEAA@PEBDAEBV?$map@G_KU?$less@G@std@@V?$allocator@U?$pair@$$CBG_K@std@@@2@@std@@PEAV23@@Z
	??0VTableSwapHook@PLH@@QEAA@_KAEBV?$map@G_KU?$less@G@std@@V?$allocator@U?$pair@$$CBG_K@std@@@2@@std@@PEAV23@@Z
	??0VTableSwapHook@PLH@@QEAA@_KPEAV?$map@G_KU?$less@G@std@@V?$allocator@U?$pair@$$CBG_K@std@@@2@@std@@@Z
	??0Vec@x86@_abi_1_10@asmjit@@QEAA@AEBV0123@@Z
	??0Vec@x86@_abi_1_10@asmjit@@QEAA@UNoInit_@Globals@23@@Z
	??0Xmm@x86@_abi_1_10@asmjit@@QEAA@AEBV0123@@Z
	??0Xmm@x86@_abi_1_10@asmjit@@QEAA@UNoInit_@Globals@23@@Z
	??0ZydisDisassembler@PLH@@QEAA@W4Mode@1@@Z
	??0_Bxty@?$_String_val@U?$_Simple_types@D@std@@@std@@QEAA@XZ
	??0_Bxty@?$_String_val@U?$_Simple_types@_W@std@@@std@@QEAA@XZ
	??0_Clear_guard@?$_Hash@V?$_Umap_traits@_KV?$shared_ptr@VFBAllocator@PLH@@@std@@V?$_Uhash_compare@_KU?$hash@_K@std@@U?$equal_to@_K@2@@2@V?$allocator@U?$pair@$$CB_KV?$shared_ptr@VFBAllocator@PLH@@@std@@@std@@@2@$0A@@std@@@std@@QEAA@QEAV12@@Z
	??0_Clear_guard@?$_Hash@V?$_Umap_traits@_KV?$vector@VInstruction@PLH@@V?$allocator@VInstruction@PLH@@@std@@@std@@V?$_Uhash_compare@_KU?$hash@_K@std@@U?$equal_to@_K@2@@2@V?$allocator@U?$pair@$$CB_KV?$vector@VInstruction@PLH@@V?$allocator@VInstruction@PLH@@@std@@@std@@@std@@@2@$0A@@std@@@std@@QEAA@QEAV12@@Z
	??0_Clear_guard@?$_Hash@V?$_Uset_traits@UAVehHookImpEntry@PLH@@V?$_Uhash_compare@UAVehHookImpEntry@PLH@@U?$hash@UAVehHookImpEntry@PLH@@@std@@U?$equal_to@UAVehHookImpEntry@PLH@@@4@@std@@V?$allocator@UAVehHookImpEntry@PLH@@@4@$0A@@std@@@std@@QEAA@QEAV12@@Z
	??0_Fake_proxy_ptr_impl@std@@QEAA@AEBU_Fake_allocator@1@AEBU_Container_base0@1@@Z
	??0_Mutex_base@std@@QEAA@H@Z
	??0_Nontrivial_dummy_type@std@@QEAA@XZ
	??0_Range_eraser@?$_Hash@V?$_Umap_traits@_KV?$shared_ptr@VFBAllocator@PLH@@@std@@V?$_Uhash_compare@_KU?$hash@_K@std@@U?$equal_to@_K@2@@2@V?$allocator@U?$pair@$$CB_KV?$shared_ptr@VFBAllocator@PLH@@@std@@@std@@@2@$0A@@std@@@std@@QEAA@AEAV?$list@U?$pair@$$CB_KV?$shared_ptr@VFBAllocator@PLH@@@std@@@std@@V?$allocator@U?$pair@$$CB_KV?$shared_ptr@VFBAllocator@PLH@@@std@@@std@@@2@@2@QEAU?$_List_node@U?$pair@$$CB_KV?$shared_ptr@VFBAllocator@PLH@@@std@@@std@@PEAX@2@@Z
	??0_Range_eraser@?$_Hash@V?$_Umap_traits@_KV?$vector@VInstruction@PLH@@V?$allocator@VInstruction@PLH@@@std@@@std@@V?$_Uhash_compare@_KU?$hash@_K@std@@U?$equal_to@_K@2@@2@V?$allocator@U?$pair@$$CB_KV?$vector@VInstruction@PLH@@V?$allocator@VInstruction@PLH@@@std@@@std@@@std@@@2@$0A@@std@@@std@@QEAA@AEAV?$list@U?$pair@$$CB_KV?$vector@VInstruction@PLH@@V?$allocator@VInstruction@PLH@@@std@@@std@@@std@@V?$allocator@U?$pair@$$CB_KV?$vector@VInstruction@PLH@@V?$allocator@VInstruction@PLH@@@std@@@std@@@std@@@2@@2@QEAU?$_List_node@U?$pair@$$CB_KV?$vector@VInstruction@PLH@@V?$allocator@VInstruction@PLH@@@std@@@std@@@std@@PEAX@2@@Z
	??0_Range_eraser@?$_Hash@V?$_Uset_traits@UAVehHookImpEntry@PLH@@V?$_Uhash_compare@UAVehHookImpEntry@PLH@@U?$hash@UAVehHookImpEntry@PLH@@@std@@U?$equal_to@UAVehHookImpEntry@PLH@@@4@@std@@V?$allocator@UAVehHookImpEntry@PLH@@@4@$0A@@std@@@std@@QEAA@AEAV?$list@UAVehHookImpEntry@PLH@@V?$allocator@UAVehHookImpEntry@PLH@@@std@@@2@QEAU?$_List_node@UAVehHookImpEntry@PLH@@PEAX@2@@Z
	??0_Ref_count_base@std@@IEAA@XZ
	??0_Sentry_base@?$basic_ostream@DU?$char_traits@D@std@@@std@@QEAA@AEAV12@@Z
	??0bad_alloc@std@@AEAA@QEBD@Z
	??0bad_alloc@std@@QEAA@AEBV01@@Z
	??0bad_array_new_length@std@@QEAA@AEBV01@@Z
	??0bad_array_new_length@std@@QEAA@XZ
	??0exception@std@@QEAA@AEBV01@@Z
	??0exception@std@@QEAA@QEBDH@Z
	??0mutex@std@@QEAA@XZ
	??0sentry@?$basic_ostream@DU?$char_traits@D@std@@@std@@QEAA@AEAV12@@Z
	??0x64Detour@PLH@@QEAA@_K0PEA_K@Z
	??0x86Detour@PLH@@QEAA@_K0PEA_K@Z
	??1?$EventDispatcher@$$A6A_NPEAU_EXCEPTION_POINTERS@@PEAK@Z@PLH@@QEAA@XZ
	??1?$FinalAction@V<lambda_1d9d9ae22e4724420ae7f74b9e164e3b>@@@PLH@@QEAA@XZ
	??1?$_Alloc_construct_ptr@V?$allocator@U?$_List_node@U?$pair@$$CB_KV?$shared_ptr@VFBAllocator@PLH@@@std@@@std@@PEAX@std@@@std@@@std@@QEAA@XZ
	??1?$_Alloc_construct_ptr@V?$allocator@U?$_List_node@U?$pair@$$CB_KV?$vector@VInstruction@PLH@@V?$allocator@VInstruction@PLH@@@std@@@std@@@std@@PEAX@std@@@std@@@std@@QEAA@XZ
	??1?$_Alloc_construct_ptr@V?$allocator@U?$_List_node@UAVehHookImpEntry@PLH@@PEAX@std@@@std@@@std@@QEAA@XZ
	??1?$_Alloc_construct_ptr@V?$allocator@U?$_Tree_node@U?$pair@$$CBG_K@std@@PEAX@std@@@std@@@std@@QEAA@XZ
	??1?$_Alloc_construct_ptr@V?$allocator@U?$_Tree_node@U?$pair@$$CBV?$basic_string@DU?$char_traits@D@std@@V?$allocator@D@2@@std@@V12@@std@@PEAX@std@@@std@@@std@@QEAA@XZ
	??1?$_Alloc_construct_ptr@V?$allocator@U?$_Tree_node@U?$pair@$$CBW4ZydisRegisterClass_@@W4ZydisRegister_@@@std@@PEAX@std@@@std@@@std@@QEAA@XZ
	??1?$_Alloc_construct_ptr@V?$allocator@U?$_Tree_node@U?$pair@$$CBW4ZydisRegister_@@W41@@std@@PEAX@std@@@std@@@std@@QEAA@XZ
	??1?$_Alloc_construct_ptr@V?$allocator@U?$_Tree_node@V?$basic_string@DU?$char_traits@D@std@@V?$allocator@D@2@@std@@PEAX@std@@@std@@@std@@QEAA@XZ
	??1?$_Alloc_temporary2@V?$allocator@VInstruction@PLH@@@std@@@std@@QEAA@XZ
	??1?$_Compressed_pair@V?$allocator@D@std@@V?$_String_val@U?$_Simple_types@D@std@@@2@$00@std@@QEAA@XZ
	??1?$_Compressed_pair@V?$allocator@_W@std@@V?$_String_val@U?$_Simple_types@_W@std@@@2@$00@std@@QEAA@XZ
	??1?$_Func_class@XAEAVAssembler@x86@_abi_1_10@asmjit@@@std@@QEAA@XZ
	??1?$_Func_class@_NPEAU_EXCEPTION_POINTERS@@PEAK@std@@QEAA@XZ
	??1?$_Hash@V?$_Umap_traits@_KV?$shared_ptr@VFBAllocator@PLH@@@std@@V?$_Uhash_compare@_KU?$hash@_K@std@@U?$equal_to@_K@2@@2@V?$allocator@U?$pair@$$CB_KV?$shared_ptr@VFBAllocator@PLH@@@std@@@std@@@2@$0A@@std@@@std@@QEAA@XZ
	??1?$_Hash@V?$_Umap_traits@_KV?$vector@VInstruction@PLH@@V?$allocator@VInstruction@PLH@@@std@@@std@@V?$_Uhash_compare@_KU?$hash@_K@std@@U?$equal_to@_K@2@@2@V?$allocator@U?$pair@$$CB_KV?$vector@VInstruction@PLH@@V?$allocator@VInstruction@PLH@@@std@@@std@@@std@@@2@$0A@@std@@@std@@QEAA@XZ
	??1?$_Hash@V?$_Uset_traits@UAVehHookImpEntry@PLH@@V?$_Uhash_compare@UAVehHookImpEntry@PLH@@U?$hash@UAVehHookImpEntry@PLH@@@std@@U?$equal_to@UAVehHookImpEntry@PLH@@@4@@std@@V?$allocator@UAVehHookImpEntry@PLH@@@4@$0A@@std@@@std@@QEAA@XZ
	??1?$_Hash_vec@V?$allocator@V?$_List_unchecked_const_iterator@V?$_List_val@U?$_List_simple_types@UAVehHookImpEntry@PLH@@@std@@@std@@U_Iterator_base0@2@@std@@@std@@@std@@QEAA@XZ
	??1?$_Hash_vec@V?$allocator@V?$_List_unchecked_iterator@V?$_List_val@U?$_List_simple_types@U?$pair@$$CB_KV?$shared_ptr@VFBAllocator@PLH@@@std@@@std@@@std@@@std@@@std@@@std@@@std@@QEAA@XZ
	??1?$_Hash_vec@V?$allocator@V?$_List_unchecked_iterator@V?$_List_val@U?$_List_simple_types@U?$pair@$$CB_KV?$vector@VInstruction@PLH@@V?$allocator@VInstruction@PLH@@@std@@@std@@@std@@@std@@@std@@@std@@@std@@@std@@QEAA@XZ
	??1?$_List_node_emplace_op2@V?$allocator@U?$_List_node@U?$pair@$$CB_KV?$shared_ptr@VFBAllocator@PLH@@@std@@@std@@PEAX@std@@@std@@@std@@QEAA@XZ
	??1?$_List_node_emplace_op2@V?$allocator@U?$_List_node@U?$pair@$$CB_KV?$vector@VInstruction@PLH@@V?$allocator@VInstruction@PLH@@@std@@@std@@@std@@PEAX@std@@@std@@@std@@QEAA@XZ
	??1?$_List_node_emplace_op2@V?$allocator@U?$_List_node@UAVehHookImpEntry@PLH@@PEAX@std@@@std@@@std@@QEAA@XZ
	??1?$_Non_trivial_copy@U?$_Optional_construct_base@UTranslationResult@PLH@@@std@@@std@@QEAA@XZ
	??1?$_Non_trivial_copy@U?$_Optional_construct_base@V?$vector@VInstruction@PLH@@V?$allocator@VInstruction@PLH@@@std@@@std@@@std@@@std@@QEAA@XZ
	??1?$_Non_trivial_copy_assign@U?$_Optional_construct_base@UTranslationResult@PLH@@@std@@UTranslationResult@PLH@@@std@@QEAA@XZ
	??1?$_Non_trivial_copy_assign@U?$_Optional_construct_base@V?$vector@VInstruction@PLH@@V?$allocator@VInstruction@PLH@@@std@@@std@@@std@@V?$vector@VInstruction@PLH@@V?$allocator@VInstruction@PLH@@@std@@@2@@std@@QEAA@XZ
	??1?$_Non_trivial_move@U?$_Optional_construct_base@UTranslationResult@PLH@@@std@@UTranslationResult@PLH@@@std@@QEAA@XZ
	??1?$_Non_trivial_move@U?$_Optional_construct_base@V?$vector@VInstruction@PLH@@V?$allocator@VInstruction@PLH@@@std@@@std@@@std@@V?$vector@VInstruction@PLH@@V?$allocator@VInstruction@PLH@@@std@@@2@@std@@QEAA@XZ
	??1?$_Non_trivial_move_assign@U?$_Optional_construct_base@UTranslationResult@PLH@@@std@@UTranslationResult@PLH@@@std@@QEAA@XZ
	??1?$_Non_trivial_move_assign@U?$_Optional_construct_base@V?$vector@VInstruction@PLH@@V?$allocator@VInstruction@PLH@@@std@@@std@@@std@@V?$vector@VInstruction@PLH@@V?$allocator@VInstruction@PLH@@@std@@@2@@std@@QEAA@XZ
	??1?$_Optional_construct_base@UTranslationResult@PLH@@@std@@QEAA@XZ
	??1?$_Optional_construct_base@V?$vector@VInstruction@PLH@@V?$allocator@VInstruction@PLH@@@std@@@std@@@std@@QEAA@XZ
	??1?$_Optional_destruct_base@UTranslationResult@PLH@@$0A@@std@@QEAA@XZ
	??1?$_Optional_destruct_base@V?$vector@VInstruction@PLH@@V?$allocator@VInstruction@PLH@@@std@@@std@@$0A@@std@@QEAA@XZ
	??1?$_Ref_count_obj2@VFBAllocator@PLH@@@std@@UEAA@XZ
	??1?$_String_val@U?$_Simple_types@D@std@@@std@@QEAA@XZ
	??1?$_String_val@U?$_Simple_types@_W@std@@@std@@QEAA@XZ
	??1?$_Tidy_guard@V?$vector@EV?$allocator@E@std@@@std@@@std@@QEAA@XZ
	??1?$_Tidy_guard@V?$vector@VInstruction@PLH@@V?$allocator@VInstruction@PLH@@@std@@@std@@@std@@QEAA@XZ
	??1?$_Tidy_guard@V?$vector@W4OperandType@Instruction@PLH@@V?$allocator@W4OperandType@Instruction@PLH@@@std@@@std@@@std@@QEAA@XZ
	??1?$_Tree@V?$_Tmap_traits@G_KU?$less@G@std@@V?$allocator@U?$pair@$$CBG_K@std@@@2@$0A@@std@@@std@@QEAA@XZ
	??1?$_Tree@V?$_Tmap_traits@V?$basic_string@DU?$char_traits@D@std@@V?$allocator@D@2@@std@@V12@U?$less@V?$basic_string@DU?$char_traits@D@std@@V?$allocator@D@2@@std@@@2@V?$allocator@U?$pair@$$CBV?$basic_string@DU?$char_traits@D@std@@V?$allocator@D@2@@std@@V12@@std@@@2@$0A@@std@@@std@@QEAA@XZ
	??1?$_Tree@V?$_Tmap_traits@W4ZydisRegisterClass_@@W4ZydisRegister_@@U?$less@W4ZydisRegisterClass_@@@std@@V?$allocator@U?$pair@$$CBW4ZydisRegisterClass_@@W4ZydisRegister_@@@std@@@4@$0A@@std@@@std@@QEAA@XZ
	??1?$_Tree@V?$_Tmap_traits@W4ZydisRegister_@@W41@U?$less@W4ZydisRegister_@@@std@@V?$allocator@U?$pair@$$CBW4ZydisRegister_@@W41@@std@@@3@$0A@@std@@@std@@QEAA@XZ
	??1?$_Tree@V?$_Tset_traits@V?$basic_string@DU?$char_traits@D@std@@V?$allocator@D@2@@std@@U?$less@V?$basic_string@DU?$char_traits@D@std@@V?$allocator@D@2@@std@@@2@V?$allocator@V?$basic_string@DU?$char_traits@D@std@@V?$allocator@D@2@@std@@@2@$0A@@std@@@std@@QEAA@XZ
	??1?$_Tree_head_scoped_ptr@V?$allocator@U?$_Tree_node@U?$pair@$$CBG_K@std@@PEAX@std@@@std@@V?$_Tree_val@U?$_Tree_simple_types@U?$pair@$$CBG_K@std@@@std@@@2@@std@@QEAA@XZ
	??1?$_Tree_temp_node@V?$allocator@U?$_Tree_node@U?$pair@$$CBG_K@std@@PEAX@std@@@std@@@std@@QEAA@XZ
	??1?$_Tree_temp_node@V?$allocator@U?$_Tree_node@U?$pair@$$CBV?$basic_string@DU?$char_traits@D@std@@V?$allocator@D@2@@std@@V12@@std@@PEAX@std@@@std@@@std@@QEAA@XZ
	??1?$_Tree_temp_node@V?$allocator@U?$_Tree_node@U?$pair@$$CBW4ZydisRegisterClass_@@W4ZydisRegister_@@@std@@PEAX@std@@@std@@@std@@QEAA@XZ
	??1?$_Tree_temp_node@V?$allocator@U?$_Tree_node@U?$pair@$$CBW4ZydisRegister_@@W41@@std@@PEAX@std@@@std@@@std@@QEAA@XZ
	??1?$_Tree_temp_node@V?$allocator@U?$_Tree_node@V?$basic_string@DU?$char_traits@D@std@@V?$allocator@D@2@@std@@PEAX@std@@@std@@@std@@QEAA@XZ
	??1?$_Tree_temp_node_alloc@V?$allocator@U?$_Tree_node@U?$pair@$$CBG_K@std@@PEAX@std@@@std@@@std@@QEAA@XZ
	??1?$_Tree_temp_node_alloc@V?$allocator@U?$_Tree_node@U?$pair@$$CBV?$basic_string@DU?$char_traits@D@std@@V?$allocator@D@2@@std@@V12@@std@@PEAX@std@@@std@@@std@@QEAA@XZ
	??1?$_Tree_temp_node_alloc@V?$allocator@U?$_Tree_node@U?$pair@$$CBW4ZydisRegisterClass_@@W4ZydisRegister_@@@std@@PEAX@std@@@std@@@std@@QEAA@XZ
	??1?$_Tree_temp_node_alloc@V?$allocator@U?$_Tree_node@U?$pair@$$CBW4ZydisRegister_@@W41@@std@@PEAX@std@@@std@@@std@@QEAA@XZ
	??1?$_Tree_temp_node_alloc@V?$allocator@U?$_Tree_node@V?$basic_string@DU?$char_traits@D@std@@V?$allocator@D@2@@std@@PEAX@std@@@std@@@std@@QEAA@XZ
	??1?$_Uninitialized_backout@PEAV?$_List_unchecked_const_iterator@V?$_List_val@U?$_List_simple_types@UAVehHookImpEntry@PLH@@@std@@@std@@U_Iterator_base0@2@@std@@@std@@QEAA@XZ
	??1?$_Uninitialized_backout@PEAV?$_List_unchecked_iterator@V?$_List_val@U?$_List_simple_types@U?$pair@$$CB_KV?$shared_ptr@VFBAllocator@PLH@@@std@@@std@@@std@@@std@@@std@@@std@@QEAA@XZ
	??1?$_Uninitialized_backout@PEAV?$_List_unchecked_iterator@V?$_List_val@U?$_List_simple_types@U?$pair@$$CB_KV?$vector@VInstruction@PLH@@V?$allocator@VInstruction@PLH@@@std@@@std@@@std@@@std@@@std@@@std@@@std@@QEAA@XZ
	??1?$_Uninitialized_backout_al@V?$allocator@E@std@@@std@@QEAA@XZ
	??1?$_Uninitialized_backout_al@V?$allocator@UError@PLH@@@std@@@std@@QEAA@XZ
	??1?$_Uninitialized_backout_al@V?$allocator@V?$basic_string@DU?$char_traits@D@std@@V?$allocator@D@2@@std@@@std@@@std@@QEAA@XZ
	??1?$_Uninitialized_backout_al@V?$allocator@V?$shared_ptr@VFBAllocator@PLH@@@std@@@std@@@std@@QEAA@XZ
	??1?$_Uninitialized_backout_al@V?$allocator@VEffect@@@std@@@std@@QEAA@XZ
	??1?$_Uninitialized_backout_al@V?$allocator@VInstruction@PLH@@@std@@@std@@QEAA@XZ
	??1?$_Uninitialized_backout_al@V?$allocator@VReg@x86@_abi_1_10@asmjit@@@std@@@std@@QEAA@XZ
	??1?$_Uninitialized_backout_al@V?$allocator@W4OperandType@Instruction@PLH@@@std@@@std@@QEAA@XZ
	??1?$_Uninitialized_backout_al@V?$allocator@W4TypeId@_abi_1_10@asmjit@@@std@@@std@@QEAA@XZ
	??1?$basic_ostringstream@DU?$char_traits@D@std@@V?$allocator@D@2@@std@@UEAA@XZ
	??1?$basic_string@DU?$char_traits@D@std@@V?$allocator@D@2@@std@@QEAA@XZ
	??1?$basic_string@_WU?$char_traits@_W@std@@V?$allocator@_W@2@@std@@QEAA@XZ
	??1?$basic_stringbuf@DU?$char_traits@D@std@@V?$allocator@D@2@@std@@UEAA@XZ
	??1?$basic_stringstream@DU?$char_traits@D@std@@V?$allocator@D@2@@std@@UEAA@XZ
	??1?$function@$$A6AXAEAVAssembler@x86@_abi_1_10@asmjit@@@Z@std@@QEAA@XZ
	??1?$function@$$A6A_NPEAU_EXCEPTION_POINTERS@@PEAK@Z@std@@QEAA@XZ
	??1?$list@U?$pair@$$CB_KV?$shared_ptr@VFBAllocator@PLH@@@std@@@std@@V?$allocator@U?$pair@$$CB_KV?$shared_ptr@VFBAllocator@PLH@@@std@@@std@@@2@@std@@QEAA@XZ
	??1?$list@U?$pair@$$CB_KV?$vector@VInstruction@PLH@@V?$allocator@VInstruction@PLH@@@std@@@std@@@std@@V?$allocator@U?$pair@$$CB_KV?$vector@VInstruction@PLH@@V?$allocator@VInstruction@PLH@@@std@@@std@@@std@@@2@@std@@QEAA@XZ
	??1?$list@UAVehHookImpEntry@PLH@@V?$allocator@UAVehHookImpEntry@PLH@@@std@@@std@@QEAA@XZ
	??1?$lock_guard@Vmutex@std@@@std@@QEAA@XZ
	??1?$map@G_KU?$less@G@std@@V?$allocator@U?$pair@$$CBG_K@std@@@2@@std@@QEAA@XZ
	??1?$map@V?$basic_string@DU?$char_traits@D@std@@V?$allocator@D@2@@std@@V12@U?$less@V?$basic_string@DU?$char_traits@D@std@@V?$allocator@D@2@@std@@@2@V?$allocator@U?$pair@$$CBV?$basic_string@DU?$char_traits@D@std@@V?$allocator@D@2@@std@@V12@@std@@@2@@std@@QEAA@XZ
	??1?$map@W4ZydisRegisterClass_@@W4ZydisRegister_@@U?$less@W4ZydisRegisterClass_@@@std@@V?$allocator@U?$pair@$$CBW4ZydisRegisterClass_@@W4ZydisRegister_@@@std@@@4@@std@@QEAA@XZ
	??1?$map@W4ZydisRegister_@@W41@U?$less@W4ZydisRegister_@@@std@@V?$allocator@U?$pair@$$CBW4ZydisRegister_@@W41@@std@@@3@@std@@QEAA@XZ
	??1?$optional@UTranslationResult@PLH@@@std@@QEAA@XZ
	??1?$optional@V?$vector@VInstruction@PLH@@V?$allocator@VInstruction@PLH@@@std@@@std@@@std@@QEAA@XZ
	??1?$pair@$$CBV?$basic_string@DU?$char_traits@D@std@@V?$allocator@D@2@@std@@V12@@std@@QEAA@XZ
	??1?$pair@$$CB_KV?$shared_ptr@VFBAllocator@PLH@@@std@@@std@@QEAA@XZ
	??1?$pair@$$CB_KV?$vector@VInstruction@PLH@@V?$allocator@VInstruction@PLH@@@std@@@std@@@std@@QEAA@XZ
	??1?$set@V?$basic_string@DU?$char_traits@D@std@@V?$allocator@D@2@@std@@U?$less@V?$basic_string@DU?$char_traits@D@std@@V?$allocator@D@2@@std@@@2@V?$allocator@V?$basic_string@DU?$char_traits@D@std@@V?$allocator@D@2@@std@@@2@@std@@QEAA@XZ
	??1?$shared_ptr@VFBAllocator@PLH@@@std@@QEAA@XZ
	??1?$shared_ptr@VLogger@PLH@@@std@@QEAA@XZ
	??1?$unique_ptr@$$BY0A@_KU?$default_delete@$$BY0A@_K@std@@@std@@QEAA@XZ
	??1?$unordered_map@_KV?$shared_ptr@VFBAllocator@PLH@@@std@@U?$hash@_K@2@U?$equal_to@_K@2@V?$allocator@U?$pair@$$CB_KV?$shared_ptr@VFBAllocator@PLH@@@std@@@std@@@2@@std@@QEAA@XZ
	??1?$unordered_map@_KV?$vector@VInstruction@PLH@@V?$allocator@VInstruction@PLH@@@std@@@std@@U?$hash@_K@2@U?$equal_to@_K@2@V?$allocator@U?$pair@$$CB_KV?$vector@VInstruction@PLH@@V?$allocator@VInstruction@PLH@@@std@@@std@@@std@@@2@@std@@QEAA@XZ
	??1?$unordered_set@UAVehHookImpEntry@PLH@@U?$hash@UAVehHookImpEntry@PLH@@@std@@U?$equal_to@UAVehHookImpEntry@PLH@@@4@V?$allocator@UAVehHookImpEntry@PLH@@@4@@std@@QEAA@XZ
	??1?$vector@EV?$allocator@E@std@@@std@@QEAA@XZ
	??1?$vector@UError@PLH@@V?$allocator@UError@PLH@@@std@@@std@@QEAA@XZ
	??1?$vector@V?$basic_string@DU?$char_traits@D@std@@V?$allocator@D@2@@std@@V?$allocator@V?$basic_string@DU?$char_traits@D@std@@V?$allocator@D@2@@std@@@2@@std@@QEAA@XZ
	??1?$vector@V?$shared_ptr@VFBAllocator@PLH@@@std@@V?$allocator@V?$shared_ptr@VFBAllocator@PLH@@@std@@@2@@std@@QEAA@XZ
	??1?$vector@VInstruction@PLH@@V?$allocator@VInstruction@PLH@@@std@@@std@@QEAA@XZ
	??1?$vector@VReg@x86@_abi_1_10@asmjit@@V?$allocator@VReg@x86@_abi_1_10@asmjit@@@std@@@std@@QEAA@XZ
	??1?$vector@W4OperandType@Instruction@PLH@@V?$allocator@W4OperandType@Instruction@PLH@@@std@@@std@@QEAA@XZ
	??1?$vector@W4TypeId@_abi_1_10@asmjit@@V?$allocator@W4TypeId@_abi_1_10@asmjit@@@std@@@std@@QEAA@XZ
	??1AVehHook@PLH@@UEAA@XZ
	??1BreakPointHook@PLH@@UEAA@XZ
	??1Detour@PLH@@UEAA@XZ
	??1EatHook@PLH@@UEAA@XZ
	??1Error@PLH@@QEAA@XZ
	??1ErrorLog@PLH@@UEAA@XZ
	??1FBAllocator@PLH@@QEAA@XZ
	??1HWBreakPointHook@PLH@@UEAA@XZ
	??1IHook@PLH@@UEAA@XZ
	??1ILCallback@PLH@@UEAA@XZ
	??1IatHook@PLH@@UEAA@XZ
	??1Instruction@PLH@@QEAA@XZ
	??1Logger@PLH@@UEAA@XZ
	??1MemAccessor@PLH@@UEAA@XZ
	??1MemoryProtector@PLH@@QEAA@XZ
	??1RangeAllocator@PLH@@QEAA@XZ
	??1StackCanary@PLH@@QEAA@XZ
	??1TranslationResult@PLH@@QEAA@XZ
	??1VFuncSwapHook@PLH@@UEAA@XZ
	??1VTableSwapHook@PLH@@UEAA@XZ
	??1ZydisDisassembler@PLH@@UEAA@XZ
	??1_Bxty@?$_String_val@U?$_Simple_types@D@std@@@std@@QEAA@XZ
	??1_Bxty@?$_String_val@U?$_Simple_types@_W@std@@@std@@QEAA@XZ
	??1_Clear_guard@?$_Hash@V?$_Umap_traits@_KV?$shared_ptr@VFBAllocator@PLH@@@std@@V?$_Uhash_compare@_KU?$hash@_K@std@@U?$equal_to@_K@2@@2@V?$allocator@U?$pair@$$CB_KV?$shared_ptr@VFBAllocator@PLH@@@std@@@std@@@2@$0A@@std@@@std@@QEAA@XZ
	??1_Clear_guard@?$_Hash@V?$_Umap_traits@_KV?$vector@VInstruction@PLH@@V?$allocator@VInstruction@PLH@@@std@@@std@@V?$_Uhash_compare@_KU?$hash@_K@std@@U?$equal_to@_K@2@@2@V?$allocator@U?$pair@$$CB_KV?$vector@VInstruction@PLH@@V?$allocator@VInstruction@PLH@@@std@@@std@@@std@@@2@$0A@@std@@@std@@QEAA@XZ
	??1_Clear_guard@?$_Hash@V?$_Uset_traits@UAVehHookImpEntry@PLH@@V?$_Uhash_compare@UAVehHookImpEntry@PLH@@U?$hash@UAVehHookImpEntry@PLH@@@std@@U?$equal_to@UAVehHookImpEntry@PLH@@@4@@std@@V?$allocator@UAVehHookImpEntry@PLH@@@4@$0A@@std@@@std@@QEAA@XZ
	??1_Range_eraser@?$_Hash@V?$_Umap_traits@_KV?$shared_ptr@VFBAllocator@PLH@@@std@@V?$_Uhash_compare@_KU?$hash@_K@std@@U?$equal_to@_K@2@@2@V?$allocator@U?$pair@$$CB_KV?$shared_ptr@VFBAllocator@PLH@@@std@@@std@@@2@$0A@@std@@@std@@QEAA@XZ
	??1_Range_eraser@?$_Hash@V?$_Umap_traits@_KV?$vector@VInstruction@PLH@@V?$allocator@VInstruction@PLH@@@std@@@std@@V?$_Uhash_compare@_KU?$hash@_K@std@@U?$equal_to@_K@2@@2@V?$allocator@U?$pair@$$CB_KV?$vector@VInstruction@PLH@@V?$allocator@VInstruction@PLH@@@std@@@std@@@std@@@2@$0A@@std@@@std@@QEAA@XZ
	??1_Range_eraser@?$_Hash@V?$_Uset_traits@UAVehHookImpEntry@PLH@@V?$_Uhash_compare@UAVehHookImpEntry@PLH@@U?$hash@UAVehHookImpEntry@PLH@@@std@@U?$equal_to@UAVehHookImpEntry@PLH@@@4@@std@@V?$allocator@UAVehHookImpEntry@PLH@@@4@$0A@@std@@@std@@QEAA@XZ
	??1_Ref_count_base@std@@UEAA@XZ
	??1_Sentry_base@?$basic_ostream@DU?$char_traits@D@std@@@std@@QEAA@XZ
	??1bad_alloc@std@@UEAA@XZ
	??1bad_array_new_length@std@@UEAA@XZ
	??1exception@std@@UEAA@XZ
	??1path@filesystem@std@@QEAA@XZ
	??1sentry@?$basic_ostream@DU?$char_traits@D@std@@@std@@QEAA@XZ
	??1x64Detour@PLH@@UEAA@XZ
	??1x86Detour@PLH@@UEAA@XZ
	??2@YAPEAX_KPEAX@Z
	??4?$basic_string@DU?$char_traits@D@std@@V?$allocator@D@2@@std@@QEAAAEAV01@$$QEAV01@@Z
	??4?$basic_string@DU?$char_traits@D@std@@V?$allocator@D@2@@std@@QEAAAEAV01@AEBV01@@Z
	??4?$basic_string@DU?$char_traits@D@std@@V?$allocator@D@2@@std@@QEAAAEAV01@QEBD@Z
	??4?$ostream_iterator@V?$basic_string@DU?$char_traits@D@std@@V?$allocator@D@2@@std@@DU?$char_traits@D@2@@std@@QEAAAEAV01@AEBV?$basic_string@DU?$char_traits@D@std@@V?$allocator@D@2@@1@@Z
	??4?$shared_ptr@VFBAllocator@PLH@@@std@@QEAAAEAV01@$$QEAV01@@Z
	??4?$shared_ptr@VFBAllocator@PLH@@@std@@QEAAAEAV01@AEBV01@@Z
	??4?$shared_ptr@VLogger@PLH@@@std@@QEAAAEAV01@AEBV01@@Z
	??4?$unique_ptr@$$BY0A@_KU?$default_delete@$$BY0A@_K@std@@@std@@QEAAAEAV01@$$T@Z
	??4?$vector@EV?$allocator@E@std@@@std@@QEAAAEAV01@$$QEAV01@@Z
	??4?$vector@EV?$allocator@E@std@@@std@@QEAAAEAV01@AEBV01@@Z
	??4?$vector@VInstruction@PLH@@V?$allocator@VInstruction@PLH@@@std@@@std@@QEAAAEAV01@$$QEAV01@@Z
	??4?$vector@VInstruction@PLH@@V?$allocator@VInstruction@PLH@@@std@@@std@@QEAAAEAV01@AEBV01@@Z
	??4?$vector@W4OperandType@Instruction@PLH@@V?$allocator@W4OperandType@Instruction@PLH@@@std@@@std@@QEAAAEAV01@$$QEAV01@@Z
	??4?$vector@W4OperandType@Instruction@PLH@@V?$allocator@W4OperandType@Instruction@PLH@@@std@@@std@@QEAAAEAV01@AEBV01@@Z
	??4BaseMem@_abi_1_10@asmjit@@QEAAAEAV012@AEBV012@@Z
	??4Effect@@QEAAAEAV0@AEBV0@@Z
	??4Error@PLH@@QEAAAEAU01@AEBU01@@Z
	??4Instruction@PLH@@QEAAAEAV01@$$QEAV01@@Z
	??4Instruction@PLH@@QEAAAEAV01@AEBV01@@Z
	??4Mem@x86@_abi_1_10@asmjit@@QEAAAEAV0123@AEBV0123@@Z
	??4Operand@_abi_1_10@asmjit@@QEAAAEAV012@AEBUOperand_@12@@Z
	??6@YAAEAV?$basic_ostream@DU?$char_traits@D@std@@@std@@AEAV01@W4ProtFlag@PLH@@@Z
	??6PLH@@YAAEAV?$basic_ostream@DU?$char_traits@D@std@@@std@@AEAV12@AEBVInstruction@0@@Z
	??8?$_List_const_iterator@V?$_List_val@U?$_List_simple_types@U?$pair@$$CB_KV?$shared_ptr@VFBAllocator@PLH@@@std@@@std@@@std@@@std@@@std@@QEBA_NAEBV01@@Z
	??8?$_List_const_iterator@V?$_List_val@U?$_List_simple_types@U?$pair@$$CB_KV?$vector@VInstruction@PLH@@V?$allocator@VInstruction@PLH@@@std@@@std@@@std@@@std@@@std@@@std@@QEBA_NAEBV01@@Z
	??8?$_List_unchecked_const_iterator@V?$_List_val@U?$_List_simple_types@U?$pair@$$CB_KV?$shared_ptr@VFBAllocator@PLH@@@std@@@std@@@std@@@std@@U_Iterator_base0@2@@std@@QEBA_NAEBV01@@Z
	??8?$_List_unchecked_const_iterator@V?$_List_val@U?$_List_simple_types@U?$pair@$$CB_KV?$vector@VInstruction@PLH@@V?$allocator@VInstruction@PLH@@@std@@@std@@@std@@@std@@@std@@U_Iterator_base0@2@@std@@QEBA_NAEBV01@@Z
	??8?$_List_unchecked_const_iterator@V?$_List_val@U?$_List_simple_types@UAVehHookImpEntry@PLH@@@std@@@std@@U_Iterator_base0@2@@std@@QEBA_NAEBV01@@Z
	??8?$_Vector_const_iterator@V?$_Vector_val@U?$_Simple_types@VInstruction@PLH@@@std@@@std@@@std@@QEBA_NAEBV01@@Z
	??8PLH@@YA_NAEBUAVehHookImpEntry@0@0@Z
	??8PLH@@YA_NAEBVInstruction@0@0@Z
	??9?$_List_const_iterator@V?$_List_val@U?$_List_simple_types@U?$pair@$$CB_KV?$shared_ptr@VFBAllocator@PLH@@@std@@@std@@@std@@@std@@@std@@QEBA_NAEBV01@@Z
	??9?$_List_const_iterator@V?$_List_val@U?$_List_simple_types@U?$pair@$$CB_KV?$vector@VInstruction@PLH@@V?$allocator@VInstruction@PLH@@@std@@@std@@@std@@@std@@@std@@@std@@QEBA_NAEBV01@@Z
	??9?$_List_unchecked_const_iterator@V?$_List_val@U?$_List_simple_types@U?$pair@$$CB_KV?$shared_ptr@VFBAllocator@PLH@@@std@@@std@@@std@@@std@@U_Iterator_base0@2@@std@@QEBA_NAEBV01@@Z
	??9?$_List_unchecked_const_iterator@V?$_List_val@U?$_List_simple_types@U?$pair@$$CB_KV?$vector@VInstruction@PLH@@V?$allocator@VInstruction@PLH@@@std@@@std@@@std@@@std@@@std@@U_Iterator_base0@2@@std@@QEBA_NAEBV01@@Z
	??9?$_List_unchecked_const_iterator@V?$_List_val@U?$_List_simple_types@UAVehHookImpEntry@PLH@@@std@@@std@@U_Iterator_base0@2@@std@@QEBA_NAEBV01@@Z
	??9?$_Tree_unchecked_const_iterator@V?$_Tree_val@U?$_Tree_simple_types@U?$pair@$$CBG_K@std@@@std@@@std@@U_Iterator_base0@2@@std@@QEBA_NU_Default_sentinel@1@@Z
	??9?$_Vector_const_iterator@V?$_Vector_val@U?$_Simple_types@VInstruction@PLH@@@std@@@std@@@std@@QEBA_NAEBV01@@Z
	??A?$map@G_KU?$less@G@std@@V?$allocator@U?$pair@$$CBG_K@std@@@2@@std@@QEAAAEA_KAEBG@Z
	??A?$unique_ptr@$$BY0A@_KU?$default_delete@$$BY0A@_K@std@@@std@@QEBAAEA_K_K@Z
	??A?$unordered_map@_KV?$shared_ptr@VFBAllocator@PLH@@@std@@U?$hash@_K@2@U?$equal_to@_K@2@V?$allocator@U?$pair@$$CB_KV?$shared_ptr@VFBAllocator@PLH@@@std@@@std@@@2@@std@@QEAAAEAV?$shared_ptr@VFBAllocator@PLH@@@1@$$QEA_K@Z
	??A?$vector@EV?$allocator@E@std@@@std@@QEAAAEAE_K@Z
	??A?$vector@EV?$allocator@E@std@@@std@@QEBAAEBE_K@Z
	??AArgPack@FuncNode@_abi_1_10@asmjit@@QEAAAEAURegOnly@23@_K@Z
	??AOperandPack@InvokeNode@_abi_1_10@asmjit@@QEAAAEAVOperand@23@_K@Z
	??B?$EventDispatcher@$$A6A_NPEAU_EXCEPTION_POINTERS@@PEAK@Z@PLH@@QEBA_NXZ
	??B?$atomic@J@std@@QEBAJXZ
	??B?$fpos@U_Mbstatet@@@std@@QEBA_JXZ
	??B?$function@$$A6A_NPEAU_EXCEPTION_POINTERS@@PEAK@Z@std@@QEBA_NXZ
	??B?$optional@UTranslationResult@PLH@@@std@@QEBA_NXZ
	??B?$optional@V?$vector@VInstruction@PLH@@V?$allocator@VInstruction@PLH@@@std@@@std@@@std@@QEBA_NXZ
	??B?$optional@_K@std@@QEBA_NXZ
	??B?$shared_ptr@VFBAllocator@PLH@@@std@@QEBA_NXZ
	??B?$shared_ptr@VLogger@PLH@@@std@@QEBA_NXZ
	??Bsentry@?$basic_ostream@DU?$char_traits@D@std@@@std@@QEBA_NXZ
	??C?$_List_iterator@V?$_List_val@U?$_List_simple_types@U?$pair@$$CB_KV?$shared_ptr@VFBAllocator@PLH@@@std@@@std@@@std@@@std@@@std@@QEBAPEAU?$pair@$$CB_KV?$shared_ptr@VFBAllocator@PLH@@@std@@@1@XZ
	??C?$_List_iterator@V?$_List_val@U?$_List_simple_types@U?$pair@$$CB_KV?$vector@VInstruction@PLH@@V?$allocator@VInstruction@PLH@@@std@@@std@@@std@@@std@@@std@@@std@@QEBAPEAU?$pair@$$CB_KV?$vector@VInstruction@PLH@@V?$allocator@VInstruction@PLH@@@std@@@std@@@1@XZ
	??C?$_Vector_iterator@V?$_Vector_val@U?$_Simple_types@VInstruction@PLH@@@std@@@std@@@std@@QEBAPEAVInstruction@PLH@@XZ
	??C?$reverse_iterator@V?$_Vector_iterator@V?$_Vector_val@U?$_Simple_types@VInstruction@PLH@@@std@@@std@@@std@@@std@@QEBAPEAVInstruction@PLH@@XZ
	??D?$_List_const_iterator@V?$_List_val@U?$_List_simple_types@U?$pair@$$CB_KV?$shared_ptr@VFBAllocator@PLH@@@std@@@std@@@std@@@std@@@std@@QEBAAEBU?$pair@$$CB_KV?$shared_ptr@VFBAllocator@PLH@@@std@@@1@XZ
	??D?$_List_const_iterator@V?$_List_val@U?$_List_simple_types@U?$pair@$$CB_KV?$vector@VInstruction@PLH@@V?$allocator@VInstruction@PLH@@@std@@@std@@@std@@@std@@@std@@@std@@QEBAAEBU?$pair@$$CB_KV?$vector@VInstruction@PLH@@V?$allocator@VInstruction@PLH@@@std@@@std@@@1@XZ
	??D?$_List_iterator@V?$_List_val@U?$_List_simple_types@U?$pair@$$CB_KV?$shared_ptr@VFBAllocator@PLH@@@std@@@std@@@std@@@std@@@std@@QEBAAEAU?$pair@$$CB_KV?$shared_ptr@VFBAllocator@PLH@@@std@@@1@XZ
	??D?$_List_iterator@V?$_List_val@U?$_List_simple_types@U?$pair@$$CB_KV?$vector@VInstruction@PLH@@V?$allocator@VInstruction@PLH@@@std@@@std@@@std@@@std@@@std@@@std@@QEBAAEAU?$pair@$$CB_KV?$vector@VInstruction@PLH@@V?$allocator@VInstruction@PLH@@@std@@@std@@@1@XZ
	??D?$_List_unchecked_const_iterator@V?$_List_val@U?$_List_simple_types@U?$pair@$$CB_KV?$shared_ptr@VFBAllocator@PLH@@@std@@@std@@@std@@@std@@U_Iterator_base0@2@@std@@QEBAAEBU?$pair@$$CB_KV?$shared_ptr@VFBAllocator@PLH@@@std@@@1@XZ
	??D?$_List_unchecked_const_iterator@V?$_List_val@U?$_List_simple_types@U?$pair@$$CB_KV?$vector@VInstruction@PLH@@V?$allocator@VInstruction@PLH@@@std@@@std@@@std@@@std@@@std@@U_Iterator_base0@2@@std@@QEBAAEBU?$pair@$$CB_KV?$vector@VInstruction@PLH@@V?$allocator@VInstruction@PLH@@@std@@@std@@@1@XZ
	??D?$_List_unchecked_const_iterator@V?$_List_val@U?$_List_simple_types@UAVehHookImpEntry@PLH@@@std@@@std@@U_Iterator_base0@2@@std@@QEBAAEBUAVehHookImpEntry@PLH@@XZ
	??D?$_List_unchecked_iterator@V?$_List_val@U?$_List_simple_types@U?$pair@$$CB_KV?$shared_ptr@VFBAllocator@PLH@@@std@@@std@@@std@@@std@@@std@@QEBAAEAU?$pair@$$CB_KV?$shared_ptr@VFBAllocator@PLH@@@std@@@1@XZ
	??D?$_List_unchecked_iterator@V?$_List_val@U?$_List_simple_types@U?$pair@$$CB_KV?$vector@VInstruction@PLH@@V?$allocator@VInstruction@PLH@@@std@@@std@@@std@@@std@@@std@@@std@@QEBAAEAU?$pair@$$CB_KV?$vector@VInstruction@PLH@@V?$allocator@VInstruction@PLH@@@std@@@std@@@1@XZ
	??D?$_Optional_construct_base@UTranslationResult@PLH@@@std@@QEGBAAEBUTranslationResult@PLH@@XZ
	??D?$_Optional_construct_base@V?$vector@VInstruction@PLH@@V?$allocator@VInstruction@PLH@@@std@@@std@@@std@@QEGAAAEAV?$vector@VInstruction@PLH@@V?$allocator@VInstruction@PLH@@@std@@@1@XZ
	??D?$_Optional_construct_base@V?$vector@VInstruction@PLH@@V?$allocator@VInstruction@PLH@@@std@@@std@@@std@@QEGBAAEBV?$vector@VInstruction@PLH@@V?$allocator@VInstruction@PLH@@@std@@@1@XZ
	??D?$_Optional_construct_base@_K@std@@QEGAAAEA_KXZ
	??D?$_Tree_unchecked_const_iterator@V?$_Tree_val@U?$_Tree_simple_types@U?$pair@$$CBG_K@std@@@std@@@std@@U_Iterator_base0@2@@std@@QEBAAEBU?$pair@$$CBG_K@1@XZ
	??D?$_Tree_unchecked_iterator@V?$_Tree_val@U?$_Tree_simple_types@U?$pair@$$CBG_K@std@@@std@@@std@@@std@@QEBAAEAU?$pair@$$CBG_K@1@XZ
	??D?$_Vector_const_iterator@V?$_Vector_val@U?$_Simple_types@VInstruction@PLH@@@std@@@std@@@std@@QEBAAEBVInstruction@PLH@@XZ
	??D?$_Vector_iterator@V?$_Vector_val@U?$_Simple_types@VInstruction@PLH@@@std@@@std@@@std@@QEBAAEAVInstruction@PLH@@XZ
	??D?$ostream_iterator@V?$basic_string@DU?$char_traits@D@std@@V?$allocator@D@2@@std@@DU?$char_traits@D@2@@std@@QEAAAEAV01@XZ
	??E?$_Atomic_integral@J$03@std@@QEAAJH@Z
	??E?$_List_unchecked_const_iterator@V?$_List_val@U?$_List_simple_types@U?$pair@$$CB_KV?$shared_ptr@VFBAllocator@PLH@@@std@@@std@@@std@@@std@@U_Iterator_base0@2@@std@@QEAAAEAV01@XZ
	??E?$_List_unchecked_const_iterator@V?$_List_val@U?$_List_simple_types@U?$pair@$$CB_KV?$vector@VInstruction@PLH@@V?$allocator@VInstruction@PLH@@@std@@@std@@@std@@@std@@@std@@U_Iterator_base0@2@@std@@QEAAAEAV01@XZ
	??E?$_List_unchecked_const_iterator@V?$_List_val@U?$_List_simple_types@UAVehHookImpEntry@PLH@@@std@@@std@@U_Iterator_base0@2@@std@@QEAAAEAV01@XZ
	??E?$_List_unchecked_iterator@V?$_List_val@U?$_List_simple_types@U?$pair@$$CB_KV?$shared_ptr@VFBAllocator@PLH@@@std@@@std@@@std@@@std@@@std@@QEAAAEAV01@XZ
	??E?$_List_unchecked_iterator@V?$_List_val@U?$_List_simple_types@U?$pair@$$CB_KV?$vector@VInstruction@PLH@@V?$allocator@VInstruction@PLH@@@std@@@std@@@std@@@std@@@std@@@std@@QEAAAEAV01@XZ
	??E?$_Tree_unchecked_const_iterator@V?$_Tree_val@U?$_Tree_simple_types@U?$pair@$$CBG_K@std@@@std@@@std@@U_Iterator_base0@2@@std@@QEAAAEAV01@XZ
	??E?$_Tree_unchecked_const_iterator@V?$_Tree_val@U?$_Tree_simple_types@U?$pair@$$CBV?$basic_string@DU?$char_traits@D@std@@V?$allocator@D@2@@std@@V12@@std@@@std@@@std@@U_Iterator_base0@2@@std@@QEAAAEAV01@XZ
	??E?$_Tree_unchecked_const_iterator@V?$_Tree_val@U?$_Tree_simple_types@U?$pair@$$CBW4ZydisRegisterClass_@@W4ZydisRegister_@@@std@@@std@@@std@@U_Iterator_base0@2@@std@@QEAAAEAV01@XZ
	??E?$_Tree_unchecked_const_iterator@V?$_Tree_val@U?$_Tree_simple_types@U?$pair@$$CBW4ZydisRegister_@@W41@@std@@@std@@@std@@U_Iterator_base0@2@@std@@QEAAAEAV01@XZ
	??E?$_Tree_unchecked_const_iterator@V?$_Tree_val@U?$_Tree_simple_types@V?$basic_string@DU?$char_traits@D@std@@V?$allocator@D@2@@std@@@std@@@std@@U_Iterator_base0@2@@std@@QEAAAEAV01@XZ
	??E?$_Tree_unchecked_iterator@V?$_Tree_val@U?$_Tree_simple_types@U?$pair@$$CBG_K@std@@@std@@@std@@@std@@QEAAAEAV01@XZ
	??E?$_Vector_const_iterator@V?$_Vector_val@U?$_Simple_types@VInstruction@PLH@@@std@@@std@@@std@@QEAAAEAV01@XZ
	??E?$ostream_iterator@V?$basic_string@DU?$char_traits@D@std@@V?$allocator@D@2@@std@@DU?$char_traits@D@2@@std@@QEAAAEAV01@XZ
	??F?$_List_unchecked_const_iterator@V?$_List_val@U?$_List_simple_types@U?$pair@$$CB_KV?$shared_ptr@VFBAllocator@PLH@@@std@@@std@@@std@@@std@@U_Iterator_base0@2@@std@@QEAAAEAV01@XZ
	??F?$_List_unchecked_const_iterator@V?$_List_val@U?$_List_simple_types@U?$pair@$$CB_KV?$vector@VInstruction@PLH@@V?$allocator@VInstruction@PLH@@@std@@@std@@@std@@@std@@@std@@U_Iterator_base0@2@@std@@QEAAAEAV01@XZ
	??F?$_List_unchecked_const_iterator@V?$_List_val@U?$_List_simple_types@UAVehHookImpEntry@PLH@@@std@@@std@@U_Iterator_base0@2@@std@@QEAAAEAV01@XZ
	??F?$_Tree_unchecked_const_iterator@V?$_Tree_val@U?$_Tree_simple_types@U?$pair@$$CBV?$basic_string@DU?$char_traits@D@std@@V?$allocator@D@2@@std@@V12@@std@@@std@@@std@@U_Iterator_base0@2@@std@@QEAAAEAV01@XZ
	??F?$_Tree_unchecked_const_iterator@V?$_Tree_val@U?$_Tree_simple_types@U?$pair@$$CBW4ZydisRegisterClass_@@W4ZydisRegister_@@@std@@@std@@@std@@U_Iterator_base0@2@@std@@QEAAAEAV01@XZ
	??F?$_Tree_unchecked_const_iterator@V?$_Tree_val@U?$_Tree_simple_types@U?$pair@$$CBW4ZydisRegister_@@W41@@std@@@std@@@std@@U_Iterator_base0@2@@std@@QEAAAEAV01@XZ
	??F?$_Tree_unchecked_const_iterator@V?$_Tree_val@U?$_Tree_simple_types@V?$basic_string@DU?$char_traits@D@std@@V?$allocator@D@2@@std@@@std@@@std@@U_Iterator_base0@2@@std@@QEAAAEAV01@XZ
	??F?$_Vector_const_iterator@V?$_Vector_val@U?$_Simple_types@VInstruction@PLH@@@std@@@std@@@std@@QEAAAEAV01@XZ
	??F?$_Vector_iterator@V?$_Vector_val@U?$_Simple_types@VInstruction@PLH@@@std@@@std@@@std@@QEAAAEAV01@XZ
	??H?$_Vector_iterator@V?$_Vector_val@U?$_Simple_types@VInstruction@PLH@@@std@@@std@@@std@@QEBA?AV01@_J@Z
	??I@YA_NW4ProtFlag@PLH@@0@Z
	??R<lambda_1d9d9ae22e4724420ae7f74b9e164e3b>@@QEBA@XZ
	??R<lambda_3cba4c8b5f4de02bc1fefd59c1cf3a07>@@QEBA@AEBVInstruction@PLH@@@Z
	??R<lambda_3e7d2ed0a1fad9c1d92b51e8c2370ff4>@@QEBA?AV?$optional@_K@std@@PEBD_K@Z
	??R<lambda_65e615be2a453ca0576c979606f46740>@@QEBA@QEADQEBD_K12@Z
	??R<lambda_66f57f934f28d61049862f64df852ff0>@@QEBA@QEAD_KQEBD@Z
	??R<lambda_b4cea091025d8ad475b7fbc4919b80fd>@@QEBA?AV?$optional@_K@std@@PEBD_K@Z
	??R<lambda_f3a66ab6a0570788f31503db83886f49>@@QEBA@QEADQEBD_K212@Z
	??R?$_Conditionally_enabled_hash@_K$00@std@@QEBA_KAEB_K@Z
	??R?$_Func_class@XAEAVAssembler@x86@_abi_1_10@asmjit@@@std@@QEBAXAEAVAssembler@x86@_abi_1_10@asmjit@@@Z
	??R?$_Func_class@_NPEAU_EXCEPTION_POINTERS@@PEAK@std@@QEBA_NPEAU_EXCEPTION_POINTERS@@PEAK@Z
	??R?$equal_to@UAVehHookImpEntry@PLH@@@std@@QEBA_NAEBUAVehHookImpEntry@PLH@@0@Z
	??R?$equal_to@_K@std@@QEBA_NAEB_K0@Z
	??R?$hash@UAVehHookImpEntry@PLH@@@std@@QEBA_KAEBUAVehHookImpEntry@PLH@@@Z
	??R?$less@G@std@@QEBA_NAEBG0@Z
	??R?$less@V?$basic_string@DU?$char_traits@D@std@@V?$allocator@D@2@@std@@@std@@QEBA_NAEBV?$basic_string@DU?$char_traits@D@std@@V?$allocator@D@2@@1@0@Z
	??R?$less@W4ZydisRegisterClass_@@@std@@QEBA_NAEBW4ZydisRegisterClass_@@0@Z
	??R?$less@W4ZydisRegister_@@@std@@QEBA_NAEBW4ZydisRegister_@@0@Z
	??R_Is_slash_oper@filesystem@std@@QEBA_N_W@Z
	??U@YA?AW4ProtFlag@PLH@@W401@0@Z
	??UOperandSignature@_abi_1_10@asmjit@@QEBA?AU012@AEBU012@@Z
	??Y?$_Vector_const_iterator@V?$_Vector_val@U?$_Simple_types@VInstruction@PLH@@@std@@@std@@@std@@QEAAAEAV01@_J@Z
	??Y?$_Vector_iterator@V?$_Vector_val@U?$_Simple_types@VInstruction@PLH@@@std@@@std@@@std@@QEAAAEAV01@_J@Z
	??Y?$basic_string@DU?$char_traits@D@std@@V?$allocator@D@2@@std@@QEAAAEAV01@AEBV01@@Z
	??_7?$_Ref_count_obj2@VFBAllocator@PLH@@@std@@6B@
	??_7?$basic_ostringstream@DU?$char_traits@D@std@@V?$allocator@D@2@@std@@6B@
	??_7?$basic_stringbuf@DU?$char_traits@D@std@@V?$allocator@D@2@@std@@6B@
	??_7?$basic_stringstream@DU?$char_traits@D@std@@V?$allocator@D@2@@std@@6B@
	??_7AVehHook@PLH@@6B@
	??_7BreakPointHook@PLH@@6B@
	??_7Detour@PLH@@6B@
	??_7EatHook@PLH@@6B@
	??_7ErrorLog@PLH@@6B@
	??_7HWBreakPointHook@PLH@@6B@
	??_7IHook@PLH@@6B@
	??_7ILCallback@PLH@@6B@
	??_7IatHook@PLH@@6B@
	??_7Logger@PLH@@6B@
	??_7MemAccessor@PLH@@6B@
	??_7VFuncSwapHook@PLH@@6B@
	??_7VTableSwapHook@PLH@@6B@
	??_7ZydisDisassembler@PLH@@6B@
	??_7bad_alloc@std@@6B@
	??_7bad_array_new_length@std@@6B@
	??_7exception@std@@6B@
	??_7x64Detour@PLH@@6B@
	??_7x86Detour@PLH@@6B@
	??_D?$basic_ostringstream@DU?$char_traits@D@std@@V?$allocator@D@2@@std@@QEAAXXZ
	??_D?$basic_stringstream@DU?$char_traits@D@std@@V?$allocator@D@2@@std@@QEAAXXZ
	?ALLOC_Alloc@@YAPEAXPEAX_K@Z
	?ALLOC_Calloc@@YAPEAXPEAX_K1@Z
	?ALLOC_Free@@YAXPEAX0@Z
	?ALLOC_NewBlock@@YAPEAXPEAUALLOC_Allocator@@@Z
	?ALLOC_Pop@@YAPEAXPEAUALLOC_Allocator@@@Z
	?ALLOC_Push@@YAXPEAUALLOC_Allocator@@PEAX@Z
	?EventException@AVehHook@PLH@@SAAEAV?$EventDispatcher@$$A6A_NPEAU_EXCEPTION_POINTERS@@PEAK@Z@2@XZ
	?EventUnhandledException@AVehHook@PLH@@SAAEAV?$EventDispatcher@$$A6A_NPEAU_EXCEPTION_POINTERS@@PEAK@Z@2@XZ
	?FindEatFunction@EatHook@PLH@@IEAAPEAIXZ
	?FindEatFunctionInModule@EatHook@PLH@@IEBAPEAIXZ
	?FindIatThunk@IatHook@PLH@@IEAAPEAU_IMAGE_THUNK_DATA64@@AEBV?$basic_string@DU?$char_traits@D@std@@V?$allocator@D@2@@std@@0V?$basic_string@_WU?$char_traits@_W@std@@V?$allocator@_W@2@@5@@Z
	?FindIatThunkInModule@IatHook@PLH@@IEAAPEAU_IMAGE_THUNK_DATA64@@PEAXAEBV?$basic_string@DU?$char_traits@D@std@@V?$allocator@D@2@@std@@1@Z
	?FindModule@EatHook@PLH@@IEAA_KXZ
	?Handler@AVehHook@PLH@@KAJPEAU_EXCEPTION_POINTERS@@@Z
	?Init@Instruction@PLH@@AEAAX_KAEBTDisplacement@12@E_N2AEBV?$vector@EV?$allocator@E@std@@@std@@AEBV?$basic_string@DU?$char_traits@D@std@@V?$allocator@D@2@@5@422W4Mode@2@@Z
	?IsValidPtr@PLH@@YA_NPEAX@Z
	?OnException@BreakPointHook@PLH@@MEAAJPEAU_EXCEPTION_POINTERS@@@Z
	?OnException@HWBreakPointHook@PLH@@MEAAJPEAU_EXCEPTION_POINTERS@@@Z
	?PeakEffect@EffectTracker@@QEAAAEAVEffect@@XZ
	?PolyHook2DebugBreak@@YAXXZ
	?PopEffect@EffectTracker@@QEAA?AVEffect@@XZ
	?PushEffect@EffectTracker@@QEAAXXZ
	?TranslateProtection@PLH@@YA?AW4ProtFlag@1@H@Z
	?TranslateProtection@PLH@@YAHW4ProtFlag@1@@Z
	?_Activate_SSO_buffer@?$_String_val@U?$_Simple_types@D@std@@@std@@QEAAXXZ
	?_Activate_SSO_buffer@?$_String_val@U?$_Simple_types@_W@std@@@std@@QEAAXXZ
	?_Adjust_manually_vector_aligned@std@@YAXAEAPEAXAEA_K@Z
	?_Adopt@_Iterator_base0@std@@QEAAXPEBX@Z
	?_Alloc_proxy@_Container_base0@std@@QEAAXAEBU_Fake_allocator@2@@Z
	?_Alloc_sentinel_and_proxy@?$_Tree@V?$_Tmap_traits@G_KU?$less@G@std@@V?$allocator@U?$pair@$$CBG_K@std@@@2@$0A@@std@@@std@@IEAAXXZ
	?_Alloc_sentinel_and_proxy@?$_Tree@V?$_Tmap_traits@V?$basic_string@DU?$char_traits@D@std@@V?$allocator@D@2@@std@@V12@U?$less@V?$basic_string@DU?$char_traits@D@std@@V?$allocator@D@2@@std@@@2@V?$allocator@U?$pair@$$CBV?$basic_string@DU?$char_traits@D@std@@V?$allocator@D@2@@std@@V12@@std@@@2@$0A@@std@@@std@@IEAAXXZ
	?_Alloc_sentinel_and_proxy@?$_Tree@V?$_Tmap_traits@W4ZydisRegisterClass_@@W4ZydisRegister_@@U?$less@W4ZydisRegisterClass_@@@std@@V?$allocator@U?$pair@$$CBW4ZydisRegisterClass_@@W4ZydisRegister_@@@std@@@4@$0A@@std@@@std@@IEAAXXZ
	?_Alloc_sentinel_and_proxy@?$_Tree@V?$_Tmap_traits@W4ZydisRegister_@@W41@U?$less@W4ZydisRegister_@@@std@@V?$allocator@U?$pair@$$CBW4ZydisRegister_@@W41@@std@@@3@$0A@@std@@@std@@IEAAXXZ
	?_Alloc_sentinel_and_proxy@?$_Tree@V?$_Tset_traits@V?$basic_string@DU?$char_traits@D@std@@V?$allocator@D@2@@std@@U?$less@V?$basic_string@DU?$char_traits@D@std@@V?$allocator@D@2@@std@@@2@V?$allocator@V?$basic_string@DU?$char_traits@D@std@@V?$allocator@D@2@@std@@@2@$0A@@std@@@std@@IEAAXXZ
	?_Alloc_sentinel_and_proxy@?$list@U?$pair@$$CB_KV?$shared_ptr@VFBAllocator@PLH@@@std@@@std@@V?$allocator@U?$pair@$$CB_KV?$shared_ptr@VFBAllocator@PLH@@@std@@@std@@@2@@std@@AEAAXXZ
	?_Alloc_sentinel_and_proxy@?$list@U?$pair@$$CB_KV?$vector@VInstruction@PLH@@V?$allocator@VInstruction@PLH@@@std@@@std@@@std@@V?$allocator@U?$pair@$$CB_KV?$vector@VInstruction@PLH@@V?$allocator@VInstruction@PLH@@@std@@@std@@@std@@@2@@std@@AEAAXXZ
	?_Alloc_sentinel_and_proxy@?$list@UAVehHookImpEntry@PLH@@V?$allocator@UAVehHookImpEntry@PLH@@@std@@@std@@AEAAXXZ
	?_Allocate@?$_Alloc_construct_ptr@V?$allocator@U?$_List_node@U?$pair@$$CB_KV?$shared_ptr@VFBAllocator@PLH@@@std@@@std@@PEAX@std@@@std@@@std@@QEAAXXZ
	?_Allocate@?$_Alloc_construct_ptr@V?$allocator@U?$_List_node@U?$pair@$$CB_KV?$vector@VInstruction@PLH@@V?$allocator@VInstruction@PLH@@@std@@@std@@@std@@PEAX@std@@@std@@@std@@QEAAXXZ
	?_Allocate@?$_Alloc_construct_ptr@V?$allocator@U?$_List_node@UAVehHookImpEntry@PLH@@PEAX@std@@@std@@@std@@QEAAXXZ
	?_Allocate@?$_Alloc_construct_ptr@V?$allocator@U?$_Tree_node@U?$pair@$$CBG_K@std@@PEAX@std@@@std@@@std@@QEAAXXZ
	?_Allocate@?$_Alloc_construct_ptr@V?$allocator@U?$_Tree_node@U?$pair@$$CBV?$basic_string@DU?$char_traits@D@std@@V?$allocator@D@2@@std@@V12@@std@@PEAX@std@@@std@@@std@@QEAAXXZ
	?_Allocate@?$_Alloc_construct_ptr@V?$allocator@U?$_Tree_node@U?$pair@$$CBW4ZydisRegisterClass_@@W4ZydisRegister_@@@std@@PEAX@std@@@std@@@std@@QEAAXXZ
	?_Allocate@?$_Alloc_construct_ptr@V?$allocator@U?$_Tree_node@U?$pair@$$CBW4ZydisRegister_@@W41@@std@@PEAX@std@@@std@@@std@@QEAAXXZ
	?_Allocate@?$_Alloc_construct_ptr@V?$allocator@U?$_Tree_node@V?$basic_string@DU?$char_traits@D@std@@V?$allocator@D@2@@std@@PEAX@std@@@std@@@std@@QEAAXXZ
	?_Allocate@_Default_allocate_traits@std@@SAPEAX_K@Z
	?_Assign_grow@?$_Hash_vec@V?$allocator@V?$_List_unchecked_const_iterator@V?$_List_val@U?$_List_simple_types@UAVehHookImpEntry@PLH@@@std@@@std@@U_Iterator_base0@2@@std@@@std@@@std@@QEAAX_KV?$_List_unchecked_const_iterator@V?$_List_val@U?$_List_simple_types@UAVehHookImpEntry@PLH@@@std@@@std@@U_Iterator_base0@2@@2@@Z
	?_Assign_grow@?$_Hash_vec@V?$allocator@V?$_List_unchecked_iterator@V?$_List_val@U?$_List_simple_types@U?$pair@$$CB_KV?$shared_ptr@VFBAllocator@PLH@@@std@@@std@@@std@@@std@@@std@@@std@@@std@@QEAAX_KV?$_List_unchecked_iterator@V?$_List_val@U?$_List_simple_types@U?$pair@$$CB_KV?$shared_ptr@VFBAllocator@PLH@@@std@@@std@@@std@@@std@@@2@@Z
	?_Assign_grow@?$_Hash_vec@V?$allocator@V?$_List_unchecked_iterator@V?$_List_val@U?$_List_simple_types@U?$pair@$$CB_KV?$vector@VInstruction@PLH@@V?$allocator@VInstruction@PLH@@@std@@@std@@@std@@@std@@@std@@@std@@@std@@@std@@QEAAX_KV?$_List_unchecked_iterator@V?$_List_val@U?$_List_simple_types@U?$pair@$$CB_KV?$vector@VInstruction@PLH@@V?$allocator@VInstruction@PLH@@@std@@@std@@@std@@@std@@@std@@@2@@Z
	?_Bump_erased@_Range_eraser@?$_Hash@V?$_Umap_traits@_KV?$shared_ptr@VFBAllocator@PLH@@@std@@V?$_Uhash_compare@_KU?$hash@_K@std@@U?$equal_to@_K@2@@2@V?$allocator@U?$pair@$$CB_KV?$shared_ptr@VFBAllocator@PLH@@@std@@@std@@@2@$0A@@std@@@std@@QEAAXXZ
	?_Bump_erased@_Range_eraser@?$_Hash@V?$_Umap_traits@_KV?$vector@VInstruction@PLH@@V?$allocator@VInstruction@PLH@@@std@@@std@@V?$_Uhash_compare@_KU?$hash@_K@std@@U?$equal_to@_K@2@@2@V?$allocator@U?$pair@$$CB_KV?$vector@VInstruction@PLH@@V?$allocator@VInstruction@PLH@@@std@@@std@@@std@@@2@$0A@@std@@@std@@QEAAXXZ
	?_Bump_erased@_Range_eraser@?$_Hash@V?$_Uset_traits@UAVehHookImpEntry@PLH@@V?$_Uhash_compare@UAVehHookImpEntry@PLH@@U?$hash@UAVehHookImpEntry@PLH@@@std@@U?$equal_to@UAVehHookImpEntry@PLH@@@4@@std@@V?$allocator@UAVehHookImpEntry@PLH@@@4@$0A@@std@@@std@@QEAAXXZ
	?_Buy_nonzero@?$vector@EV?$allocator@E@std@@@std@@AEAAX_K@Z
	?_Buy_nonzero@?$vector@VInstruction@PLH@@V?$allocator@VInstruction@PLH@@@std@@@std@@AEAAX_K@Z
	?_Buy_nonzero@?$vector@W4OperandType@Instruction@PLH@@V?$allocator@W4OperandType@Instruction@PLH@@@std@@@std@@AEAAX_K@Z
	?_Buy_raw@?$vector@EV?$allocator@E@std@@@std@@AEAAX_K@Z
	?_Buy_raw@?$vector@VInstruction@PLH@@V?$allocator@VInstruction@PLH@@@std@@@std@@AEAAX_K@Z
	?_Buy_raw@?$vector@W4OperandType@Instruction@PLH@@V?$allocator@W4OperandType@Instruction@PLH@@@std@@@std@@AEAAX_K@Z
	?_Calculate_growth@?$basic_string@DU?$char_traits@D@std@@V?$allocator@D@2@@std@@AEBA_K_K@Z
	?_Calculate_growth@?$basic_string@DU?$char_traits@D@std@@V?$allocator@D@2@@std@@CA_K_K00@Z
	?_Calculate_growth@?$basic_string@_WU?$char_traits@_W@std@@V?$allocator@_W@2@@std@@CA_K_K00@Z
	?_Calculate_growth@?$vector@EV?$allocator@E@std@@@std@@AEBA_K_K@Z
	?_Calculate_growth@?$vector@UError@PLH@@V?$allocator@UError@PLH@@@std@@@std@@AEBA_K_K@Z
	?_Calculate_growth@?$vector@V?$basic_string@DU?$char_traits@D@std@@V?$allocator@D@2@@std@@V?$allocator@V?$basic_string@DU?$char_traits@D@std@@V?$allocator@D@2@@std@@@2@@std@@AEBA_K_K@Z
	?_Calculate_growth@?$vector@V?$shared_ptr@VFBAllocator@PLH@@@std@@V?$allocator@V?$shared_ptr@VFBAllocator@PLH@@@std@@@2@@std@@AEBA_K_K@Z
	?_Calculate_growth@?$vector@VEffect@@V?$allocator@VEffect@@@std@@@std@@AEBA_K_K@Z
	?_Calculate_growth@?$vector@VInstruction@PLH@@V?$allocator@VInstruction@PLH@@@std@@@std@@AEBA_K_K@Z
	?_Calculate_growth@?$vector@VReg@x86@_abi_1_10@asmjit@@V?$allocator@VReg@x86@_abi_1_10@asmjit@@@std@@@std@@AEBA_K_K@Z
	?_Calculate_growth@?$vector@W4OperandType@Instruction@PLH@@V?$allocator@W4OperandType@Instruction@PLH@@@std@@@std@@AEBA_K_K@Z
	?_Calculate_growth@?$vector@W4TypeId@_abi_1_10@asmjit@@V?$allocator@W4TypeId@_abi_1_10@asmjit@@@std@@@std@@AEBA_K_K@Z
	?_Ceiling_of_log_2@std@@YAK_K@Z
	?_Change_array@?$vector@EV?$allocator@E@std@@@std@@AEAAXQEAE_K1@Z
	?_Change_array@?$vector@UError@PLH@@V?$allocator@UError@PLH@@@std@@@std@@AEAAXQEAUError@PLH@@_K1@Z
	?_Change_array@?$vector@V?$basic_string@DU?$char_traits@D@std@@V?$allocator@D@2@@std@@V?$allocator@V?$basic_string@DU?$char_traits@D@std@@V?$allocator@D@2@@std@@@2@@std@@AEAAXQEAV?$basic_string@DU?$char_traits@D@std@@V?$allocator@D@2@@2@_K1@Z
	?_Change_array@?$vector@V?$shared_ptr@VFBAllocator@PLH@@@std@@V?$allocator@V?$shared_ptr@VFBAllocator@PLH@@@std@@@2@@std@@AEAAXQEAV?$shared_ptr@VFBAllocator@PLH@@@2@_K1@Z
	?_Change_array@?$vector@VEffect@@V?$allocator@VEffect@@@std@@@std@@AEAAXQEAVEffect@@_K1@Z
	?_Change_array@?$vector@VInstruction@PLH@@V?$allocator@VInstruction@PLH@@@std@@@std@@AEAAXQEAVInstruction@PLH@@_K1@Z
	?_Change_array@?$vector@VReg@x86@_abi_1_10@asmjit@@V?$allocator@VReg@x86@_abi_1_10@asmjit@@@std@@@std@@AEAAXQEAVReg@x86@_abi_1_10@asmjit@@_K1@Z
	?_Change_array@?$vector@W4OperandType@Instruction@PLH@@V?$allocator@W4OperandType@Instruction@PLH@@@std@@@std@@AEAAXQEAW4OperandType@Instruction@PLH@@_K1@Z
	?_Change_array@?$vector@W4TypeId@_abi_1_10@asmjit@@V?$allocator@W4TypeId@_abi_1_10@asmjit@@@std@@@std@@AEAAXQEAW4TypeId@_abi_1_10@asmjit@@_K1@Z
	?_Check_grow_by_1@?$_Tree@V?$_Tmap_traits@G_KU?$less@G@std@@V?$allocator@U?$pair@$$CBG_K@std@@@2@$0A@@std@@@std@@IEAAXXZ
	?_Check_grow_by_1@?$_Tree@V?$_Tmap_traits@V?$basic_string@DU?$char_traits@D@std@@V?$allocator@D@2@@std@@V12@U?$less@V?$basic_string@DU?$char_traits@D@std@@V?$allocator@D@2@@std@@@2@V?$allocator@U?$pair@$$CBV?$basic_string@DU?$char_traits@D@std@@V?$allocator@D@2@@std@@V12@@std@@@2@$0A@@std@@@std@@IEAAXXZ
	?_Check_grow_by_1@?$_Tree@V?$_Tmap_traits@W4ZydisRegisterClass_@@W4ZydisRegister_@@U?$less@W4ZydisRegisterClass_@@@std@@V?$allocator@U?$pair@$$CBW4ZydisRegisterClass_@@W4ZydisRegister_@@@std@@@4@$0A@@std@@@std@@IEAAXXZ
	?_Check_grow_by_1@?$_Tree@V?$_Tmap_traits@W4ZydisRegister_@@W41@U?$less@W4ZydisRegister_@@@std@@V?$allocator@U?$pair@$$CBW4ZydisRegister_@@W41@@std@@@3@$0A@@std@@@std@@IEAAXXZ
	?_Check_grow_by_1@?$_Tree@V?$_Tset_traits@V?$basic_string@DU?$char_traits@D@std@@V?$allocator@D@2@@std@@U?$less@V?$basic_string@DU?$char_traits@D@std@@V?$allocator@D@2@@std@@@2@V?$allocator@V?$basic_string@DU?$char_traits@D@std@@V?$allocator@D@2@@std@@@2@$0A@@std@@@std@@IEAAXXZ
	?_Check_max_size@?$_Hash@V?$_Umap_traits@_KV?$shared_ptr@VFBAllocator@PLH@@@std@@V?$_Uhash_compare@_KU?$hash@_K@std@@U?$equal_to@_K@2@@2@V?$allocator@U?$pair@$$CB_KV?$shared_ptr@VFBAllocator@PLH@@@std@@@std@@@2@$0A@@std@@@std@@IEBAXXZ
	?_Check_max_size@?$_Hash@V?$_Umap_traits@_KV?$vector@VInstruction@PLH@@V?$allocator@VInstruction@PLH@@@std@@@std@@V?$_Uhash_compare@_KU?$hash@_K@std@@U?$equal_to@_K@2@@2@V?$allocator@U?$pair@$$CB_KV?$vector@VInstruction@PLH@@V?$allocator@VInstruction@PLH@@@std@@@std@@@std@@@2@$0A@@std@@@std@@IEBAXXZ
	?_Check_max_size@?$_Hash@V?$_Uset_traits@UAVehHookImpEntry@PLH@@V?$_Uhash_compare@UAVehHookImpEntry@PLH@@U?$hash@UAVehHookImpEntry@PLH@@@std@@U?$equal_to@UAVehHookImpEntry@PLH@@@4@@std@@V?$allocator@UAVehHookImpEntry@PLH@@@4@$0A@@std@@@std@@IEBAXXZ
	?_Check_offset@?$_String_val@U?$_Simple_types@D@std@@@std@@QEBAX_K@Z
	?_Check_rehash_required_1@?$_Hash@V?$_Umap_traits@_KV?$shared_ptr@VFBAllocator@PLH@@@std@@V?$_Uhash_compare@_KU?$hash@_K@std@@U?$equal_to@_K@2@@2@V?$allocator@U?$pair@$$CB_KV?$shared_ptr@VFBAllocator@PLH@@@std@@@std@@@2@$0A@@std@@@std@@IEBA_NXZ
	?_Check_rehash_required_1@?$_Hash@V?$_Umap_traits@_KV?$vector@VInstruction@PLH@@V?$allocator@VInstruction@PLH@@@std@@@std@@V?$_Uhash_compare@_KU?$hash@_K@std@@U?$equal_to@_K@2@@2@V?$allocator@U?$pair@$$CB_KV?$vector@VInstruction@PLH@@V?$allocator@VInstruction@PLH@@@std@@@std@@@std@@@2@$0A@@std@@@std@@IEBA_NXZ
	?_Check_rehash_required_1@?$_Hash@V?$_Uset_traits@UAVehHookImpEntry@PLH@@V?$_Uhash_compare@UAVehHookImpEntry@PLH@@U?$hash@UAVehHookImpEntry@PLH@@@std@@U?$equal_to@UAVehHookImpEntry@PLH@@@4@@std@@V?$allocator@UAVehHookImpEntry@PLH@@@4@$0A@@std@@@std@@IEBA_NXZ
	?_Clamp_suffix_size@?$_String_val@U?$_Simple_types@D@std@@@std@@QEBA_K_K0@Z
	?_Clear_and_reserve_geometric@?$vector@EV?$allocator@E@std@@@std@@AEAAX_K@Z
	?_Clear_and_reserve_geometric@?$vector@VInstruction@PLH@@V?$allocator@VInstruction@PLH@@@std@@@std@@AEAAX_K@Z
	?_Clear_and_reserve_geometric@?$vector@W4OperandType@Instruction@PLH@@V?$allocator@W4OperandType@Instruction@PLH@@@std@@@std@@AEAAX_K@Z
	?_Compat@?$_Vector_const_iterator@V?$_Vector_val@U?$_Simple_types@VInstruction@PLH@@@std@@@std@@@std@@QEBAXAEBV12@@Z
	?_Construct_empty@?$basic_string@DU?$char_traits@D@std@@V?$allocator@D@2@@std@@AEAAXXZ
	?_Deallocate_for_capacity@?$basic_string@DU?$char_traits@D@std@@V?$allocator@D@2@@std@@CAXAEAV?$allocator@D@2@QEAD_K@Z
	?_Deallocate_for_capacity@?$basic_string@_WU?$char_traits@_W@std@@V?$allocator@_W@2@@std@@CAXAEAV?$allocator@_W@2@QEA_W_K@Z
	?_Decref@?$_Ptr_base@VFBAllocator@PLH@@@std@@IEAAXXZ
	?_Decref@?$_Ptr_base@VLogger@PLH@@@std@@IEAAXXZ
	?_Decref@_Ref_count_base@std@@QEAAXXZ
	?_Decwref@_Ref_count_base@std@@QEAAXXZ
	?_Delete_this@?$_Ref_count_obj2@VFBAllocator@PLH@@@std@@EEAAXXZ
	?_Desired_grow_bucket_count@?$_Hash@V?$_Umap_traits@_KV?$shared_ptr@VFBAllocator@PLH@@@std@@V?$_Uhash_compare@_KU?$hash@_K@std@@U?$equal_to@_K@2@@2@V?$allocator@U?$pair@$$CB_KV?$shared_ptr@VFBAllocator@PLH@@@std@@@std@@@2@$0A@@std@@@std@@IEBA_K_K@Z
	?_Desired_grow_bucket_count@?$_Hash@V?$_Umap_traits@_KV?$vector@VInstruction@PLH@@V?$allocator@VInstruction@PLH@@@std@@@std@@V?$_Uhash_compare@_KU?$hash@_K@std@@U?$equal_to@_K@2@@2@V?$allocator@U?$pair@$$CB_KV?$vector@VInstruction@PLH@@V?$allocator@VInstruction@PLH@@@std@@@std@@@std@@@2@$0A@@std@@@std@@IEBA_K_K@Z
	?_Desired_grow_bucket_count@?$_Hash@V?$_Uset_traits@UAVehHookImpEntry@PLH@@V?$_Uhash_compare@UAVehHookImpEntry@PLH@@U?$hash@UAVehHookImpEntry@PLH@@@std@@U?$equal_to@UAVehHookImpEntry@PLH@@@4@@std@@V?$allocator@UAVehHookImpEntry@PLH@@@4@$0A@@std@@@std@@IEBA_K_K@Z
	?_Destroy@?$_Ref_count_obj2@VFBAllocator@PLH@@@std@@EEAAXXZ
	?_Do_hash@?$hash@_K@std@@SA_KAEB_K@Z
	?_Empty@?$_Func_class@XAEAVAssembler@x86@_abi_1_10@asmjit@@@std@@IEBA_NXZ
	?_Empty@?$_Func_class@_NPEAU_EXCEPTION_POINTERS@@PEAK@std@@IEBA_NXZ
	?_Equal@?$basic_string@DU?$char_traits@D@std@@V?$allocator@D@2@@std@@QEBA_NQEBD@Z
	?_Erase_bucket@?$_Hash@V?$_Umap_traits@_KV?$shared_ptr@VFBAllocator@PLH@@@std@@V?$_Uhash_compare@_KU?$hash@_K@std@@U?$equal_to@_K@2@@2@V?$allocator@U?$pair@$$CB_KV?$shared_ptr@VFBAllocator@PLH@@@std@@@std@@@2@$0A@@std@@@std@@IEAAXPEAU?$_List_node@U?$pair@$$CB_KV?$shared_ptr@VFBAllocator@PLH@@@std@@@std@@PEAX@2@_K@Z
	?_Erase_bucket@?$_Hash@V?$_Uset_traits@UAVehHookImpEntry@PLH@@V?$_Uhash_compare@UAVehHookImpEntry@PLH@@U?$hash@UAVehHookImpEntry@PLH@@@std@@U?$equal_to@UAVehHookImpEntry@PLH@@@4@@std@@V?$allocator@UAVehHookImpEntry@PLH@@@4@$0A@@std@@@std@@IEAAXPEAU?$_List_node@UAVehHookImpEntry@PLH@@PEAX@2@_K@Z
	?_Erase_noexcept@?$basic_string@DU?$char_traits@D@std@@V?$allocator@D@2@@std@@AEAAAEAV12@_K_K@Z
	?_Extract@?$_In_place_key_extract_map@V?$basic_string@DU?$char_traits@D@std@@V?$allocator@D@2@@std@@U?$pair@$$CBV?$basic_string@DU?$char_traits@D@std@@V?$allocator@D@2@@std@@V12@@2@@std@@SAAEBV?$basic_string@DU?$char_traits@D@std@@V?$allocator@D@2@@2@AEBU?$pair@$$CBV?$basic_string@DU?$char_traits@D@std@@V?$allocator@D@2@@std@@V12@@2@@Z
	?_Extract@?$_In_place_key_extract_map@W4ZydisRegisterClass_@@U?$pair@$$CBW4ZydisRegisterClass_@@W4ZydisRegister_@@@std@@@std@@SAAEBW4ZydisRegisterClass_@@AEBU?$pair@$$CBW4ZydisRegisterClass_@@W4ZydisRegister_@@@2@@Z
	?_Extract@?$_In_place_key_extract_map@W4ZydisRegister_@@U?$pair@$$CBW4ZydisRegister_@@W41@@std@@@std@@SAAEBW4ZydisRegister_@@AEBU?$pair@$$CBW4ZydisRegister_@@W41@@2@@Z
	?_Extract@?$_In_place_key_extract_map@_K_KV?$vector@VInstruction@PLH@@V?$allocator@VInstruction@PLH@@@std@@@std@@@std@@SAAEB_KAEB_KAEBV?$vector@VInstruction@PLH@@V?$allocator@VInstruction@PLH@@@std@@@2@@Z
	?_Extract@?$_In_place_key_extract_set@UAVehHookImpEntry@PLH@@U12@@std@@SAAEBUAVehHookImpEntry@PLH@@AEBU34@@Z
	?_Extract@?$_In_place_key_extract_set@V?$basic_string@DU?$char_traits@D@std@@V?$allocator@D@2@@std@@V12@@std@@SAAEBV?$basic_string@DU?$char_traits@D@std@@V?$allocator@D@2@@2@AEBV32@@Z
	?_Find_root_name_end@filesystem@std@@YAPEB_WQEB_W0@Z
	?_Floor_of_log_2@std@@YAK_K@Z
	?_Fnv1a_append_bytes@std@@YA_K_KQEBE_K@Z
	?_Forced_rehash@?$_Hash@V?$_Umap_traits@_KV?$shared_ptr@VFBAllocator@PLH@@@std@@V?$_Uhash_compare@_KU?$hash@_K@std@@U?$equal_to@_K@2@@2@V?$allocator@U?$pair@$$CB_KV?$shared_ptr@VFBAllocator@PLH@@@std@@@std@@@2@$0A@@std@@@std@@IEAAX_K@Z
	?_Forced_rehash@?$_Hash@V?$_Umap_traits@_KV?$vector@VInstruction@PLH@@V?$allocator@VInstruction@PLH@@@std@@@std@@V?$_Uhash_compare@_KU?$hash@_K@std@@U?$equal_to@_K@2@@2@V?$allocator@U?$pair@$$CB_KV?$vector@VInstruction@PLH@@V?$allocator@VInstruction@PLH@@@std@@@std@@@std@@@2@$0A@@std@@@std@@IEAAX_K@Z
	?_Forced_rehash@?$_Hash@V?$_Uset_traits@UAVehHookImpEntry@PLH@@V?$_Uhash_compare@UAVehHookImpEntry@PLH@@U?$hash@UAVehHookImpEntry@PLH@@@std@@U?$equal_to@UAVehHookImpEntry@PLH@@@4@@std@@V?$allocator@UAVehHookImpEntry@PLH@@@4@$0A@@std@@@std@@IEAAX_K@Z
	?_Get_buffer_view@?$basic_stringbuf@DU?$char_traits@D@std@@V?$allocator@D@2@@std@@QEBA?AU_Buffer_view@12@XZ
	?_Get_deleter@_Ref_count_base@std@@UEBAPEAXAEBVtype_info@@@Z
	?_Get_first@?$_Compressed_pair@U?$default_delete@$$BY0A@_K@std@@PEA_K$00@std@@QEAAAEAU?$default_delete@$$BY0A@_K@2@XZ
	?_Get_first@?$_Compressed_pair@U?$equal_to@UAVehHookImpEntry@PLH@@@std@@M$00@std@@QEBAAEBU?$equal_to@UAVehHookImpEntry@PLH@@@2@XZ
	?_Get_first@?$_Compressed_pair@U?$equal_to@_K@std@@M$00@std@@QEBAAEBU?$equal_to@_K@2@XZ
	?_Get_first@?$_Compressed_pair@U?$hash@UAVehHookImpEntry@PLH@@@std@@V?$_Compressed_pair@U?$equal_to@UAVehHookImpEntry@PLH@@@std@@M$00@2@$00@std@@QEBAAEBU?$hash@UAVehHookImpEntry@PLH@@@2@XZ
	?_Get_first@?$_Compressed_pair@U?$hash@_K@std@@V?$_Compressed_pair@U?$equal_to@_K@std@@M$00@2@$00@std@@QEBAAEBU?$hash@_K@2@XZ
	?_Get_first@?$_Compressed_pair@U?$less@G@std@@V?$_Compressed_pair@V?$allocator@U?$_Tree_node@U?$pair@$$CBG_K@std@@PEAX@std@@@std@@V?$_Tree_val@U?$_Tree_simple_types@U?$pair@$$CBG_K@std@@@std@@@2@$00@2@$00@std@@QEBAAEBU?$less@G@2@XZ
	?_Get_first@?$_Compressed_pair@U?$less@V?$basic_string@DU?$char_traits@D@std@@V?$allocator@D@2@@std@@@std@@V?$_Compressed_pair@V?$allocator@U?$_Tree_node@U?$pair@$$CBV?$basic_string@DU?$char_traits@D@std@@V?$allocator@D@2@@std@@V12@@std@@PEAX@std@@@std@@V?$_Tree_val@U?$_Tree_simple_types@U?$pair@$$CBV?$basic_string@DU?$char_traits@D@std@@V?$allocator@D@2@@std@@V12@@std@@@std@@@2@$00@2@$00@std@@QEBAAEBU?$less@V?$basic_string@DU?$char_traits@D@std@@V?$allocator@D@2@@std@@@2@XZ
	?_Get_first@?$_Compressed_pair@U?$less@V?$basic_string@DU?$char_traits@D@std@@V?$allocator@D@2@@std@@@std@@V?$_Compressed_pair@V?$allocator@U?$_Tree_node@V?$basic_string@DU?$char_traits@D@std@@V?$allocator@D@2@@std@@PEAX@std@@@std@@V?$_Tree_val@U?$_Tree_simple_types@V?$basic_string@DU?$char_traits@D@std@@V?$allocator@D@2@@std@@@std@@@2@$00@2@$00@std@@QEBAAEBU?$less@V?$basic_string@DU?$char_traits@D@std@@V?$allocator@D@2@@std@@@2@XZ
	?_Get_first@?$_Compressed_pair@U?$less@W4ZydisRegisterClass_@@@std@@V?$_Compressed_pair@V?$allocator@U?$_Tree_node@U?$pair@$$CBW4ZydisRegisterClass_@@W4ZydisRegister_@@@std@@PEAX@std@@@std@@V?$_Tree_val@U?$_Tree_simple_types@U?$pair@$$CBW4ZydisRegisterClass_@@W4ZydisRegister_@@@std@@@std@@@2@$00@2@$00@std@@QEBAAEBU?$less@W4ZydisRegisterClass_@@@2@XZ
	?_Get_first@?$_Compressed_pair@U?$less@W4ZydisRegister_@@@std@@V?$_Compressed_pair@V?$allocator@U?$_Tree_node@U?$pair@$$CBW4ZydisRegister_@@W41@@std@@PEAX@std@@@std@@V?$_Tree_val@U?$_Tree_simple_types@U?$pair@$$CBW4ZydisRegister_@@W41@@std@@@std@@@2@$00@2@$00@std@@QEBAAEBU?$less@W4ZydisRegister_@@@2@XZ
	?_Get_first@?$_Compressed_pair@V?$allocator@D@std@@V?$_String_val@U?$_Simple_types@D@std@@@2@$00@std@@QEAAAEAV?$allocator@D@2@XZ
	?_Get_first@?$_Compressed_pair@V?$allocator@D@std@@V?$_String_val@U?$_Simple_types@D@std@@@2@$00@std@@QEBAAEBV?$allocator@D@2@XZ
	?_Get_first@?$_Compressed_pair@V?$allocator@E@std@@V?$_Vector_val@U?$_Simple_types@E@std@@@2@$00@std@@QEAAAEAV?$allocator@E@2@XZ
	?_Get_first@?$_Compressed_pair@V?$allocator@E@std@@V?$_Vector_val@U?$_Simple_types@E@std@@@2@$00@std@@QEBAAEBV?$allocator@E@2@XZ
	?_Get_first@?$_Compressed_pair@V?$allocator@U?$_List_node@U?$pair@$$CB_KV?$shared_ptr@VFBAllocator@PLH@@@std@@@std@@PEAX@std@@@std@@V?$_List_val@U?$_List_simple_types@U?$pair@$$CB_KV?$shared_ptr@VFBAllocator@PLH@@@std@@@std@@@std@@@2@$00@std@@QEAAAEAV?$allocator@U?$_List_node@U?$pair@$$CB_KV?$shared_ptr@VFBAllocator@PLH@@@std@@@std@@PEAX@std@@@2@XZ
	?_Get_first@?$_Compressed_pair@V?$allocator@U?$_List_node@U?$pair@$$CB_KV?$shared_ptr@VFBAllocator@PLH@@@std@@@std@@PEAX@std@@@std@@V?$_List_val@U?$_List_simple_types@U?$pair@$$CB_KV?$shared_ptr@VFBAllocator@PLH@@@std@@@std@@@std@@@2@$00@std@@QEBAAEBV?$allocator@U?$_List_node@U?$pair@$$CB_KV?$shared_ptr@VFBAllocator@PLH@@@std@@@std@@PEAX@std@@@2@XZ
	?_Get_first@?$_Compressed_pair@V?$allocator@U?$_List_node@U?$pair@$$CB_KV?$vector@VInstruction@PLH@@V?$allocator@VInstruction@PLH@@@std@@@std@@@std@@PEAX@std@@@std@@V?$_List_val@U?$_List_simple_types@U?$pair@$$CB_KV?$vector@VInstruction@PLH@@V?$allocator@VInstruction@PLH@@@std@@@std@@@std@@@std@@@2@$00@std@@QEAAAEAV?$allocator@U?$_List_node@U?$pair@$$CB_KV?$vector@VInstruction@PLH@@V?$allocator@VInstruction@PLH@@@std@@@std@@@std@@PEAX@std@@@2@XZ
	?_Get_first@?$_Compressed_pair@V?$allocator@U?$_List_node@U?$pair@$$CB_KV?$vector@VInstruction@PLH@@V?$allocator@VInstruction@PLH@@@std@@@std@@@std@@PEAX@std@@@std@@V?$_List_val@U?$_List_simple_types@U?$pair@$$CB_KV?$vector@VInstruction@PLH@@V?$allocator@VInstruction@PLH@@@std@@@std@@@std@@@std@@@2@$00@std@@QEBAAEBV?$allocator@U?$_List_node@U?$pair@$$CB_KV?$vector@VInstruction@PLH@@V?$allocator@VInstruction@PLH@@@std@@@std@@@std@@PEAX@std@@@2@XZ
	?_Get_first@?$_Compressed_pair@V?$allocator@U?$_List_node@UAVehHookImpEntry@PLH@@PEAX@std@@@std@@V?$_List_val@U?$_List_simple_types@UAVehHookImpEntry@PLH@@@std@@@2@$00@std@@QEAAAEAV?$allocator@U?$_List_node@UAVehHookImpEntry@PLH@@PEAX@std@@@2@XZ
	?_Get_first@?$_Compressed_pair@V?$allocator@U?$_List_node@UAVehHookImpEntry@PLH@@PEAX@std@@@std@@V?$_List_val@U?$_List_simple_types@UAVehHookImpEntry@PLH@@@std@@@2@$00@std@@QEBAAEBV?$allocator@U?$_List_node@UAVehHookImpEntry@PLH@@PEAX@std@@@2@XZ
	?_Get_first@?$_Compressed_pair@V?$allocator@U?$_Tree_node@U?$pair@$$CBG_K@std@@PEAX@std@@@std@@V?$_Tree_val@U?$_Tree_simple_types@U?$pair@$$CBG_K@std@@@std@@@2@$00@std@@QEAAAEAV?$allocator@U?$_Tree_node@U?$pair@$$CBG_K@std@@PEAX@std@@@2@XZ
	?_Get_first@?$_Compressed_pair@V?$allocator@U?$_Tree_node@U?$pair@$$CBG_K@std@@PEAX@std@@@std@@V?$_Tree_val@U?$_Tree_simple_types@U?$pair@$$CBG_K@std@@@std@@@2@$00@std@@QEBAAEBV?$allocator@U?$_Tree_node@U?$pair@$$CBG_K@std@@PEAX@std@@@2@XZ
	?_Get_first@?$_Compressed_pair@V?$allocator@U?$_Tree_node@U?$pair@$$CBV?$basic_string@DU?$char_traits@D@std@@V?$allocator@D@2@@std@@V12@@std@@PEAX@std@@@std@@V?$_Tree_val@U?$_Tree_simple_types@U?$pair@$$CBV?$basic_string@DU?$char_traits@D@std@@V?$allocator@D@2@@std@@V12@@std@@@std@@@2@$00@std@@QEAAAEAV?$allocator@U?$_Tree_node@U?$pair@$$CBV?$basic_string@DU?$char_traits@D@std@@V?$allocator@D@2@@std@@V12@@std@@PEAX@std@@@2@XZ
	?_Get_first@?$_Compressed_pair@V?$allocator@U?$_Tree_node@U?$pair@$$CBV?$basic_string@DU?$char_traits@D@std@@V?$allocator@D@2@@std@@V12@@std@@PEAX@std@@@std@@V?$_Tree_val@U?$_Tree_simple_types@U?$pair@$$CBV?$basic_string@DU?$char_traits@D@std@@V?$allocator@D@2@@std@@V12@@std@@@std@@@2@$00@std@@QEBAAEBV?$allocator@U?$_Tree_node@U?$pair@$$CBV?$basic_string@DU?$char_traits@D@std@@V?$allocator@D@2@@std@@V12@@std@@PEAX@std@@@2@XZ
	?_Get_first@?$_Compressed_pair@V?$allocator@U?$_Tree_node@U?$pair@$$CBW4ZydisRegisterClass_@@W4ZydisRegister_@@@std@@PEAX@std@@@std@@V?$_Tree_val@U?$_Tree_simple_types@U?$pair@$$CBW4ZydisRegisterClass_@@W4ZydisRegister_@@@std@@@std@@@2@$00@std@@QEAAAEAV?$allocator@U?$_Tree_node@U?$pair@$$CBW4ZydisRegisterClass_@@W4ZydisRegister_@@@std@@PEAX@std@@@2@XZ
	?_Get_first@?$_Compressed_pair@V?$allocator@U?$_Tree_node@U?$pair@$$CBW4ZydisRegisterClass_@@W4ZydisRegister_@@@std@@PEAX@std@@@std@@V?$_Tree_val@U?$_Tree_simple_types@U?$pair@$$CBW4ZydisRegisterClass_@@W4ZydisRegister_@@@std@@@std@@@2@$00@std@@QEBAAEBV?$allocator@U?$_Tree_node@U?$pair@$$CBW4ZydisRegisterClass_@@W4ZydisRegister_@@@std@@PEAX@std@@@2@XZ
	?_Get_first@?$_Compressed_pair@V?$allocator@U?$_Tree_node@U?$pair@$$CBW4ZydisRegister_@@W41@@std@@PEAX@std@@@std@@V?$_Tree_val@U?$_Tree_simple_types@U?$pair@$$CBW4ZydisRegister_@@W41@@std@@@std@@@2@$00@std@@QEAAAEAV?$allocator@U?$_Tree_node@U?$pair@$$CBW4ZydisRegister_@@W41@@std@@PEAX@std@@@2@XZ
	?_Get_first@?$_Compressed_pair@V?$allocator@U?$_Tree_node@U?$pair@$$CBW4ZydisRegister_@@W41@@std@@PEAX@std@@@std@@V?$_Tree_val@U?$_Tree_simple_types@U?$pair@$$CBW4ZydisRegister_@@W41@@std@@@std@@@2@$00@std@@QEBAAEBV?$allocator@U?$_Tree_node@U?$pair@$$CBW4ZydisRegister_@@W41@@std@@PEAX@std@@@2@XZ
	?_Get_first@?$_Compressed_pair@V?$allocator@U?$_Tree_node@V?$basic_string@DU?$char_traits@D@std@@V?$allocator@D@2@@std@@PEAX@std@@@std@@V?$_Tree_val@U?$_Tree_simple_types@V?$basic_string@DU?$char_traits@D@std@@V?$allocator@D@2@@std@@@std@@@2@$00@std@@QEAAAEAV?$allocator@U?$_Tree_node@V?$basic_string@DU?$char_traits@D@std@@V?$allocator@D@2@@std@@PEAX@std@@@2@XZ
	?_Get_first@?$_Compressed_pair@V?$allocator@U?$_Tree_node@V?$basic_string@DU?$char_traits@D@std@@V?$allocator@D@2@@std@@PEAX@std@@@std@@V?$_Tree_val@U?$_Tree_simple_types@V?$basic_string@DU?$char_traits@D@std@@V?$allocator@D@2@@std@@@std@@@2@$00@std@@QEBAAEBV?$allocator@U?$_Tree_node@V?$basic_string@DU?$char_traits@D@std@@V?$allocator@D@2@@std@@PEAX@std@@@2@XZ
	?_Get_first@?$_Compressed_pair@V?$allocator@UError@PLH@@@std@@V?$_Vector_val@U?$_Simple_types@UError@PLH@@@std@@@2@$00@std@@QEAAAEAV?$allocator@UError@PLH@@@2@XZ
	?_Get_first@?$_Compressed_pair@V?$allocator@UError@PLH@@@std@@V?$_Vector_val@U?$_Simple_types@UError@PLH@@@std@@@2@$00@std@@QEBAAEBV?$allocator@UError@PLH@@@2@XZ
	?_Get_first@?$_Compressed_pair@V?$allocator@V?$_List_unchecked_const_iterator@V?$_List_val@U?$_List_simple_types@UAVehHookImpEntry@PLH@@@std@@@std@@U_Iterator_base0@2@@std@@@std@@V?$_Vector_val@U?$_Simple_types@V?$_List_unchecked_const_iterator@V?$_List_val@U?$_List_simple_types@UAVehHookImpEntry@PLH@@@std@@@std@@U_Iterator_base0@2@@std@@@std@@@2@$00@std@@QEAAAEAV?$allocator@V?$_List_unchecked_const_iterator@V?$_List_val@U?$_List_simple_types@UAVehHookImpEntry@PLH@@@std@@@std@@U_Iterator_base0@2@@std@@@2@XZ
	?_Get_first@?$_Compressed_pair@V?$allocator@V?$_List_unchecked_const_iterator@V?$_List_val@U?$_List_simple_types@UAVehHookImpEntry@PLH@@@std@@@std@@U_Iterator_base0@2@@std@@@std@@V?$_Vector_val@U?$_Simple_types@V?$_List_unchecked_const_iterator@V?$_List_val@U?$_List_simple_types@UAVehHookImpEntry@PLH@@@std@@@std@@U_Iterator_base0@2@@std@@@std@@@2@$00@std@@QEBAAEBV?$allocator@V?$_List_unchecked_const_iterator@V?$_List_val@U?$_List_simple_types@UAVehHookImpEntry@PLH@@@std@@@std@@U_Iterator_base0@2@@std@@@2@XZ
	?_Get_first@?$_Compressed_pair@V?$allocator@V?$_List_unchecked_iterator@V?$_List_val@U?$_List_simple_types@U?$pair@$$CB_KV?$shared_ptr@VFBAllocator@PLH@@@std@@@std@@@std@@@std@@@std@@@std@@V?$_Vector_val@U?$_Simple_types@V?$_List_unchecked_iterator@V?$_List_val@U?$_List_simple_types@U?$pair@$$CB_KV?$shared_ptr@VFBAllocator@PLH@@@std@@@std@@@std@@@std@@@std@@@std@@@2@$00@std@@QEAAAEAV?$allocator@V?$_List_unchecked_iterator@V?$_List_val@U?$_List_simple_types@U?$pair@$$CB_KV?$shared_ptr@VFBAllocator@PLH@@@std@@@std@@@std@@@std@@@std@@@2@XZ
	?_Get_first@?$_Compressed_pair@V?$allocator@V?$_List_unchecked_iterator@V?$_List_val@U?$_List_simple_types@U?$pair@$$CB_KV?$shared_ptr@VFBAllocator@PLH@@@std@@@std@@@std@@@std@@@std@@@std@@V?$_Vector_val@U?$_Simple_types@V?$_List_unchecked_iterator@V?$_List_val@U?$_List_simple_types@U?$pair@$$CB_KV?$shared_ptr@VFBAllocator@PLH@@@std@@@std@@@std@@@std@@@std@@@std@@@2@$00@std@@QEBAAEBV?$allocator@V?$_List_unchecked_iterator@V?$_List_val@U?$_List_simple_types@U?$pair@$$CB_KV?$shared_ptr@VFBAllocator@PLH@@@std@@@std@@@std@@@std@@@std@@@2@XZ
	?_Get_first@?$_Compressed_pair@V?$allocator@V?$_List_unchecked_iterator@V?$_List_val@U?$_List_simple_types@U?$pair@$$CB_KV?$vector@VInstruction@PLH@@V?$allocator@VInstruction@PLH@@@std@@@std@@@std@@@std@@@std@@@std@@@std@@V?$_Vector_val@U?$_Simple_types@V?$_List_unchecked_iterator@V?$_List_val@U?$_List_simple_types@U?$pair@$$CB_KV?$vector@VInstruction@PLH@@V?$allocator@VInstruction@PLH@@@std@@@std@@@std@@@std@@@std@@@std@@@std@@@2@$00@std@@QEAAAEAV?$allocator@V?$_List_unchecked_iterator@V?$_List_val@U?$_List_simple_types@U?$pair@$$CB_KV?$vector@VInstruction@PLH@@V?$allocator@VInstruction@PLH@@@std@@@std@@@std@@@std@@@std@@@std@@@2@XZ
	?_Get_first@?$_Compressed_pair@V?$allocator@V?$_List_unchecked_iterator@V?$_List_val@U?$_List_simple_types@U?$pair@$$CB_KV?$vector@VInstruction@PLH@@V?$allocator@VInstruction@PLH@@@std@@@std@@@std@@@std@@@std@@@std@@@std@@V?$_Vector_val@U?$_Simple_types@V?$_List_unchecked_iterator@V?$_List_val@U?$_List_simple_types@U?$pair@$$CB_KV?$vector@VInstruction@PLH@@V?$allocator@VInstruction@PLH@@@std@@@std@@@std@@@std@@@std@@@std@@@std@@@2@$00@std@@QEBAAEBV?$allocator@V?$_List_unchecked_iterator@V?$_List_val@U?$_List_simple_types@U?$pair@$$CB_KV?$vector@VInstruction@PLH@@V?$allocator@VInstruction@PLH@@@std@@@std@@@std@@@std@@@std@@@std@@@2@XZ
	?_Get_first@?$_Compressed_pair@V?$allocator@V?$basic_string@DU?$char_traits@D@std@@V?$allocator@D@2@@std@@@std@@V?$_Vector_val@U?$_Simple_types@V?$basic_string@DU?$char_traits@D@std@@V?$allocator@D@2@@std@@@std@@@2@$00@std@@QEAAAEAV?$allocator@V?$basic_string@DU?$char_traits@D@std@@V?$allocator@D@2@@std@@@2@XZ
	?_Get_first@?$_Compressed_pair@V?$allocator@V?$basic_string@DU?$char_traits@D@std@@V?$allocator@D@2@@std@@@std@@V?$_Vector_val@U?$_Simple_types@V?$basic_string@DU?$char_traits@D@std@@V?$allocator@D@2@@std@@@std@@@2@$00@std@@QEBAAEBV?$allocator@V?$basic_string@DU?$char_traits@D@std@@V?$allocator@D@2@@std@@@2@XZ
	?_Get_first@?$_Compressed_pair@V?$allocator@V?$shared_ptr@VFBAllocator@PLH@@@std@@@std@@V?$_Vector_val@U?$_Simple_types@V?$shared_ptr@VFBAllocator@PLH@@@std@@@std@@@2@$00@std@@QEAAAEAV?$allocator@V?$shared_ptr@VFBAllocator@PLH@@@std@@@2@XZ
	?_Get_first@?$_Compressed_pair@V?$allocator@V?$shared_ptr@VFBAllocator@PLH@@@std@@@std@@V?$_Vector_val@U?$_Simple_types@V?$shared_ptr@VFBAllocator@PLH@@@std@@@std@@@2@$00@std@@QEBAAEBV?$allocator@V?$shared_ptr@VFBAllocator@PLH@@@std@@@2@XZ
	?_Get_first@?$_Compressed_pair@V?$allocator@VEffect@@@std@@V?$_Vector_val@U?$_Simple_types@VEffect@@@std@@@2@$00@std@@QEAAAEAV?$allocator@VEffect@@@2@XZ
	?_Get_first@?$_Compressed_pair@V?$allocator@VEffect@@@std@@V?$_Vector_val@U?$_Simple_types@VEffect@@@std@@@2@$00@std@@QEBAAEBV?$allocator@VEffect@@@2@XZ
	?_Get_first@?$_Compressed_pair@V?$allocator@VInstruction@PLH@@@std@@V?$_Vector_val@U?$_Simple_types@VInstruction@PLH@@@std@@@2@$00@std@@QEAAAEAV?$allocator@VInstruction@PLH@@@2@XZ
	?_Get_first@?$_Compressed_pair@V?$allocator@VInstruction@PLH@@@std@@V?$_Vector_val@U?$_Simple_types@VInstruction@PLH@@@std@@@2@$00@std@@QEBAAEBV?$allocator@VInstruction@PLH@@@2@XZ
	?_Get_first@?$_Compressed_pair@V?$allocator@VReg@x86@_abi_1_10@asmjit@@@std@@V?$_Vector_val@U?$_Simple_types@VReg@x86@_abi_1_10@asmjit@@@std@@@2@$00@std@@QEAAAEAV?$allocator@VReg@x86@_abi_1_10@asmjit@@@2@XZ
	?_Get_first@?$_Compressed_pair@V?$allocator@VReg@x86@_abi_1_10@asmjit@@@std@@V?$_Vector_val@U?$_Simple_types@VReg@x86@_abi_1_10@asmjit@@@std@@@2@$00@std@@QEBAAEBV?$allocator@VReg@x86@_abi_1_10@asmjit@@@2@XZ
	?_Get_first@?$_Compressed_pair@V?$allocator@W4OperandType@Instruction@PLH@@@std@@V?$_Vector_val@U?$_Simple_types@W4OperandType@Instruction@PLH@@@std@@@2@$00@std@@QEAAAEAV?$allocator@W4OperandType@Instruction@PLH@@@2@XZ
	?_Get_first@?$_Compressed_pair@V?$allocator@W4OperandType@Instruction@PLH@@@std@@V?$_Vector_val@U?$_Simple_types@W4OperandType@Instruction@PLH@@@std@@@2@$00@std@@QEBAAEBV?$allocator@W4OperandType@Instruction@PLH@@@2@XZ
	?_Get_first@?$_Compressed_pair@V?$allocator@W4TypeId@_abi_1_10@asmjit@@@std@@V?$_Vector_val@U?$_Simple_types@W4TypeId@_abi_1_10@asmjit@@@std@@@2@$00@std@@QEAAAEAV?$allocator@W4TypeId@_abi_1_10@asmjit@@@2@XZ
	?_Get_first@?$_Compressed_pair@V?$allocator@W4TypeId@_abi_1_10@asmjit@@@std@@V?$_Vector_val@U?$_Simple_types@W4TypeId@_abi_1_10@asmjit@@@std@@@2@$00@std@@QEBAAEBV?$allocator@W4TypeId@_abi_1_10@asmjit@@@2@XZ
	?_Get_first@?$_Compressed_pair@V?$allocator@_W@std@@V?$_String_val@U?$_Simple_types@_W@std@@@2@$00@std@@QEAAAEAV?$allocator@_W@2@XZ
	?_Get_first@?$_Compressed_pair@V?$allocator@_W@std@@V?$_String_val@U?$_Simple_types@_W@std@@@2@$00@std@@QEBAAEBV?$allocator@_W@2@XZ
	?_Get_max_bucket_size@?$_Uhash_compare@UAVehHookImpEntry@PLH@@U?$hash@UAVehHookImpEntry@PLH@@@std@@U?$equal_to@UAVehHookImpEntry@PLH@@@4@@std@@QEAAAEAMXZ
	?_Get_max_bucket_size@?$_Uhash_compare@UAVehHookImpEntry@PLH@@U?$hash@UAVehHookImpEntry@PLH@@@std@@U?$equal_to@UAVehHookImpEntry@PLH@@@4@@std@@QEBAAEBMXZ
	?_Get_max_bucket_size@?$_Uhash_compare@_KU?$hash@_K@std@@U?$equal_to@_K@2@@std@@QEAAAEAMXZ
	?_Get_max_bucket_size@?$_Uhash_compare@_KU?$hash@_K@std@@U?$equal_to@_K@2@@std@@QEBAAEBMXZ
	?_Get_scary@?$_Tree@V?$_Tmap_traits@G_KU?$less@G@std@@V?$allocator@U?$pair@$$CBG_K@std@@@2@$0A@@std@@@std@@IEAAPEAV?$_Tree_val@U?$_Tree_simple_types@U?$pair@$$CBG_K@std@@@std@@@2@XZ
	?_Get_scary@?$_Tree@V?$_Tmap_traits@G_KU?$less@G@std@@V?$allocator@U?$pair@$$CBG_K@std@@@2@$0A@@std@@@std@@IEBAPEBV?$_Tree_val@U?$_Tree_simple_types@U?$pair@$$CBG_K@std@@@std@@@2@XZ
	?_Get_scary@?$_Tree@V?$_Tmap_traits@V?$basic_string@DU?$char_traits@D@std@@V?$allocator@D@2@@std@@V12@U?$less@V?$basic_string@DU?$char_traits@D@std@@V?$allocator@D@2@@std@@@2@V?$allocator@U?$pair@$$CBV?$basic_string@DU?$char_traits@D@std@@V?$allocator@D@2@@std@@V12@@std@@@2@$0A@@std@@@std@@IEAAPEAV?$_Tree_val@U?$_Tree_simple_types@U?$pair@$$CBV?$basic_string@DU?$char_traits@D@std@@V?$allocator@D@2@@std@@V12@@std@@@std@@@2@XZ
	?_Get_scary@?$_Tree@V?$_Tmap_traits@V?$basic_string@DU?$char_traits@D@std@@V?$allocator@D@2@@std@@V12@U?$less@V?$basic_string@DU?$char_traits@D@std@@V?$allocator@D@2@@std@@@2@V?$allocator@U?$pair@$$CBV?$basic_string@DU?$char_traits@D@std@@V?$allocator@D@2@@std@@V12@@std@@@2@$0A@@std@@@std@@IEBAPEBV?$_Tree_val@U?$_Tree_simple_types@U?$pair@$$CBV?$basic_string@DU?$char_traits@D@std@@V?$allocator@D@2@@std@@V12@@std@@@std@@@2@XZ
	?_Get_scary@?$_Tree@V?$_Tmap_traits@W4ZydisRegisterClass_@@W4ZydisRegister_@@U?$less@W4ZydisRegisterClass_@@@std@@V?$allocator@U?$pair@$$CBW4ZydisRegisterClass_@@W4ZydisRegister_@@@std@@@4@$0A@@std@@@std@@IEAAPEAV?$_Tree_val@U?$_Tree_simple_types@U?$pair@$$CBW4ZydisRegisterClass_@@W4ZydisRegister_@@@std@@@std@@@2@XZ
	?_Get_scary@?$_Tree@V?$_Tmap_traits@W4ZydisRegisterClass_@@W4ZydisRegister_@@U?$less@W4ZydisRegisterClass_@@@std@@V?$allocator@U?$pair@$$CBW4ZydisRegisterClass_@@W4ZydisRegister_@@@std@@@4@$0A@@std@@@std@@IEBAPEBV?$_Tree_val@U?$_Tree_simple_types@U?$pair@$$CBW4ZydisRegisterClass_@@W4ZydisRegister_@@@std@@@std@@@2@XZ
	?_Get_scary@?$_Tree@V?$_Tmap_traits@W4ZydisRegister_@@W41@U?$less@W4ZydisRegister_@@@std@@V?$allocator@U?$pair@$$CBW4ZydisRegister_@@W41@@std@@@3@$0A@@std@@@std@@IEAAPEAV?$_Tree_val@U?$_Tree_simple_types@U?$pair@$$CBW4ZydisRegister_@@W41@@std@@@std@@@2@XZ
	?_Get_scary@?$_Tree@V?$_Tmap_traits@W4ZydisRegister_@@W41@U?$less@W4ZydisRegister_@@@std@@V?$allocator@U?$pair@$$CBW4ZydisRegister_@@W41@@std@@@3@$0A@@std@@@std@@IEBAPEBV?$_Tree_val@U?$_Tree_simple_types@U?$pair@$$CBW4ZydisRegister_@@W41@@std@@@std@@@2@XZ
	?_Get_scary@?$_Tree@V?$_Tset_traits@V?$basic_string@DU?$char_traits@D@std@@V?$allocator@D@2@@std@@U?$less@V?$basic_string@DU?$char_traits@D@std@@V?$allocator@D@2@@std@@@2@V?$allocator@V?$basic_string@DU?$char_traits@D@std@@V?$allocator@D@2@@std@@@2@$0A@@std@@@std@@IEAAPEAV?$_Tree_val@U?$_Tree_simple_types@V?$basic_string@DU?$char_traits@D@std@@V?$allocator@D@2@@std@@@std@@@2@XZ
	?_Get_scary@?$_Tree@V?$_Tset_traits@V?$basic_string@DU?$char_traits@D@std@@V?$allocator@D@2@@std@@U?$less@V?$basic_string@DU?$char_traits@D@std@@V?$allocator@D@2@@std@@@2@V?$allocator@V?$basic_string@DU?$char_traits@D@std@@V?$allocator@D@2@@std@@@2@$0A@@std@@@std@@IEBAPEBV?$_Tree_val@U?$_Tree_simple_types@V?$basic_string@DU?$char_traits@D@std@@V?$allocator@D@2@@std@@@std@@@2@XZ
	?_Get_value@?$_Alloc_temporary2@V?$allocator@VInstruction@PLH@@@std@@@std@@QEAAAEAVInstruction@PLH@@XZ
	?_Getal@?$_Tree@V?$_Tmap_traits@G_KU?$less@G@std@@V?$allocator@U?$pair@$$CBG_K@std@@@2@$0A@@std@@@std@@IEAAAEAV?$allocator@U?$_Tree_node@U?$pair@$$CBG_K@std@@PEAX@std@@@2@XZ
	?_Getal@?$_Tree@V?$_Tmap_traits@G_KU?$less@G@std@@V?$allocator@U?$pair@$$CBG_K@std@@@2@$0A@@std@@@std@@IEBAAEBV?$allocator@U?$_Tree_node@U?$pair@$$CBG_K@std@@PEAX@std@@@2@XZ
	?_Getal@?$_Tree@V?$_Tmap_traits@V?$basic_string@DU?$char_traits@D@std@@V?$allocator@D@2@@std@@V12@U?$less@V?$basic_string@DU?$char_traits@D@std@@V?$allocator@D@2@@std@@@2@V?$allocator@U?$pair@$$CBV?$basic_string@DU?$char_traits@D@std@@V?$allocator@D@2@@std@@V12@@std@@@2@$0A@@std@@@std@@IEAAAEAV?$allocator@U?$_Tree_node@U?$pair@$$CBV?$basic_string@DU?$char_traits@D@std@@V?$allocator@D@2@@std@@V12@@std@@PEAX@std@@@2@XZ
	?_Getal@?$_Tree@V?$_Tmap_traits@V?$basic_string@DU?$char_traits@D@std@@V?$allocator@D@2@@std@@V12@U?$less@V?$basic_string@DU?$char_traits@D@std@@V?$allocator@D@2@@std@@@2@V?$allocator@U?$pair@$$CBV?$basic_string@DU?$char_traits@D@std@@V?$allocator@D@2@@std@@V12@@std@@@2@$0A@@std@@@std@@IEBAAEBV?$allocator@U?$_Tree_node@U?$pair@$$CBV?$basic_string@DU?$char_traits@D@std@@V?$allocator@D@2@@std@@V12@@std@@PEAX@std@@@2@XZ
	?_Getal@?$_Tree@V?$_Tmap_traits@W4ZydisRegisterClass_@@W4ZydisRegister_@@U?$less@W4ZydisRegisterClass_@@@std@@V?$allocator@U?$pair@$$CBW4ZydisRegisterClass_@@W4ZydisRegister_@@@std@@@4@$0A@@std@@@std@@IEAAAEAV?$allocator@U?$_Tree_node@U?$pair@$$CBW4ZydisRegisterClass_@@W4ZydisRegister_@@@std@@PEAX@std@@@2@XZ
	?_Getal@?$_Tree@V?$_Tmap_traits@W4ZydisRegisterClass_@@W4ZydisRegister_@@U?$less@W4ZydisRegisterClass_@@@std@@V?$allocator@U?$pair@$$CBW4ZydisRegisterClass_@@W4ZydisRegister_@@@std@@@4@$0A@@std@@@std@@IEBAAEBV?$allocator@U?$_Tree_node@U?$pair@$$CBW4ZydisRegisterClass_@@W4ZydisRegister_@@@std@@PEAX@std@@@2@XZ
	?_Getal@?$_Tree@V?$_Tmap_traits@W4ZydisRegister_@@W41@U?$less@W4ZydisRegister_@@@std@@V?$allocator@U?$pair@$$CBW4ZydisRegister_@@W41@@std@@@3@$0A@@std@@@std@@IEAAAEAV?$allocator@U?$_Tree_node@U?$pair@$$CBW4ZydisRegister_@@W41@@std@@PEAX@std@@@2@XZ
	?_Getal@?$_Tree@V?$_Tmap_traits@W4ZydisRegister_@@W41@U?$less@W4ZydisRegister_@@@std@@V?$allocator@U?$pair@$$CBW4ZydisRegister_@@W41@@std@@@3@$0A@@std@@@std@@IEBAAEBV?$allocator@U?$_Tree_node@U?$pair@$$CBW4ZydisRegister_@@W41@@std@@PEAX@std@@@2@XZ
	?_Getal@?$_Tree@V?$_Tset_traits@V?$basic_string@DU?$char_traits@D@std@@V?$allocator@D@2@@std@@U?$less@V?$basic_string@DU?$char_traits@D@std@@V?$allocator@D@2@@std@@@2@V?$allocator@V?$basic_string@DU?$char_traits@D@std@@V?$allocator@D@2@@std@@@2@$0A@@std@@@std@@IEAAAEAV?$allocator@U?$_Tree_node@V?$basic_string@DU?$char_traits@D@std@@V?$allocator@D@2@@std@@PEAX@std@@@2@XZ
	?_Getal@?$_Tree@V?$_Tset_traits@V?$basic_string@DU?$char_traits@D@std@@V?$allocator@D@2@@std@@U?$less@V?$basic_string@DU?$char_traits@D@std@@V?$allocator@D@2@@std@@@2@V?$allocator@V?$basic_string@DU?$char_traits@D@std@@V?$allocator@D@2@@std@@@2@$0A@@std@@@std@@IEBAAEBV?$allocator@U?$_Tree_node@V?$basic_string@DU?$char_traits@D@std@@V?$allocator@D@2@@std@@PEAX@std@@@2@XZ
	?_Getal@?$basic_string@DU?$char_traits@D@std@@V?$allocator@D@2@@std@@AEAAAEAV?$allocator@D@2@XZ
	?_Getal@?$basic_string@DU?$char_traits@D@std@@V?$allocator@D@2@@std@@AEBAAEBV?$allocator@D@2@XZ
	?_Getal@?$basic_string@_WU?$char_traits@_W@std@@V?$allocator@_W@2@@std@@AEAAAEAV?$allocator@_W@2@XZ
	?_Getal@?$basic_string@_WU?$char_traits@_W@std@@V?$allocator@_W@2@@std@@AEBAAEBV?$allocator@_W@2@XZ
	?_Getal@?$list@U?$pair@$$CB_KV?$shared_ptr@VFBAllocator@PLH@@@std@@@std@@V?$allocator@U?$pair@$$CB_KV?$shared_ptr@VFBAllocator@PLH@@@std@@@std@@@2@@std@@AEAAAEAV?$allocator@U?$_List_node@U?$pair@$$CB_KV?$shared_ptr@VFBAllocator@PLH@@@std@@@std@@PEAX@std@@@2@XZ
	?_Getal@?$list@U?$pair@$$CB_KV?$shared_ptr@VFBAllocator@PLH@@@std@@@std@@V?$allocator@U?$pair@$$CB_KV?$shared_ptr@VFBAllocator@PLH@@@std@@@std@@@2@@std@@AEBAAEBV?$allocator@U?$_List_node@U?$pair@$$CB_KV?$shared_ptr@VFBAllocator@PLH@@@std@@@std@@PEAX@std@@@2@XZ
	?_Getal@?$list@U?$pair@$$CB_KV?$vector@VInstruction@PLH@@V?$allocator@VInstruction@PLH@@@std@@@std@@@std@@V?$allocator@U?$pair@$$CB_KV?$vector@VInstruction@PLH@@V?$allocator@VInstruction@PLH@@@std@@@std@@@std@@@2@@std@@AEAAAEAV?$allocator@U?$_List_node@U?$pair@$$CB_KV?$vector@VInstruction@PLH@@V?$allocator@VInstruction@PLH@@@std@@@std@@@std@@PEAX@std@@@2@XZ
	?_Getal@?$list@U?$pair@$$CB_KV?$vector@VInstruction@PLH@@V?$allocator@VInstruction@PLH@@@std@@@std@@@std@@V?$allocator@U?$pair@$$CB_KV?$vector@VInstruction@PLH@@V?$allocator@VInstruction@PLH@@@std@@@std@@@std@@@2@@std@@AEBAAEBV?$allocator@U?$_List_node@U?$pair@$$CB_KV?$vector@VInstruction@PLH@@V?$allocator@VInstruction@PLH@@@std@@@std@@@std@@PEAX@std@@@2@XZ
	?_Getal@?$list@UAVehHookImpEntry@PLH@@V?$allocator@UAVehHookImpEntry@PLH@@@std@@@std@@AEAAAEAV?$allocator@U?$_List_node@UAVehHookImpEntry@PLH@@PEAX@std@@@2@XZ
	?_Getal@?$list@UAVehHookImpEntry@PLH@@V?$allocator@UAVehHookImpEntry@PLH@@@std@@@std@@AEBAAEBV?$allocator@U?$_List_node@UAVehHookImpEntry@PLH@@PEAX@std@@@2@XZ
	?_Getal@?$vector@EV?$allocator@E@std@@@std@@AEAAAEAV?$allocator@E@2@XZ
	?_Getal@?$vector@EV?$allocator@E@std@@@std@@AEBAAEBV?$allocator@E@2@XZ
	?_Getal@?$vector@UError@PLH@@V?$allocator@UError@PLH@@@std@@@std@@AEAAAEAV?$allocator@UError@PLH@@@2@XZ
	?_Getal@?$vector@UError@PLH@@V?$allocator@UError@PLH@@@std@@@std@@AEBAAEBV?$allocator@UError@PLH@@@2@XZ
	?_Getal@?$vector@V?$basic_string@DU?$char_traits@D@std@@V?$allocator@D@2@@std@@V?$allocator@V?$basic_string@DU?$char_traits@D@std@@V?$allocator@D@2@@std@@@2@@std@@AEAAAEAV?$allocator@V?$basic_string@DU?$char_traits@D@std@@V?$allocator@D@2@@std@@@2@XZ
	?_Getal@?$vector@V?$basic_string@DU?$char_traits@D@std@@V?$allocator@D@2@@std@@V?$allocator@V?$basic_string@DU?$char_traits@D@std@@V?$allocator@D@2@@std@@@2@@std@@AEBAAEBV?$allocator@V?$basic_string@DU?$char_traits@D@std@@V?$allocator@D@2@@std@@@2@XZ
	?_Getal@?$vector@V?$shared_ptr@VFBAllocator@PLH@@@std@@V?$allocator@V?$shared_ptr@VFBAllocator@PLH@@@std@@@2@@std@@AEAAAEAV?$allocator@V?$shared_ptr@VFBAllocator@PLH@@@std@@@2@XZ
	?_Getal@?$vector@V?$shared_ptr@VFBAllocator@PLH@@@std@@V?$allocator@V?$shared_ptr@VFBAllocator@PLH@@@std@@@2@@std@@AEBAAEBV?$allocator@V?$shared_ptr@VFBAllocator@PLH@@@std@@@2@XZ
	?_Getal@?$vector@VEffect@@V?$allocator@VEffect@@@std@@@std@@AEAAAEAV?$allocator@VEffect@@@2@XZ
	?_Getal@?$vector@VEffect@@V?$allocator@VEffect@@@std@@@std@@AEBAAEBV?$allocator@VEffect@@@2@XZ
	?_Getal@?$vector@VInstruction@PLH@@V?$allocator@VInstruction@PLH@@@std@@@std@@AEAAAEAV?$allocator@VInstruction@PLH@@@2@XZ
	?_Getal@?$vector@VInstruction@PLH@@V?$allocator@VInstruction@PLH@@@std@@@std@@AEBAAEBV?$allocator@VInstruction@PLH@@@2@XZ
	?_Getal@?$vector@VReg@x86@_abi_1_10@asmjit@@V?$allocator@VReg@x86@_abi_1_10@asmjit@@@std@@@std@@AEAAAEAV?$allocator@VReg@x86@_abi_1_10@asmjit@@@2@XZ
	?_Getal@?$vector@VReg@x86@_abi_1_10@asmjit@@V?$allocator@VReg@x86@_abi_1_10@asmjit@@@std@@@std@@AEBAAEBV?$allocator@VReg@x86@_abi_1_10@asmjit@@@2@XZ
	?_Getal@?$vector@W4OperandType@Instruction@PLH@@V?$allocator@W4OperandType@Instruction@PLH@@@std@@@std@@AEAAAEAV?$allocator@W4OperandType@Instruction@PLH@@@2@XZ
	?_Getal@?$vector@W4OperandType@Instruction@PLH@@V?$allocator@W4OperandType@Instruction@PLH@@@std@@@std@@AEBAAEBV?$allocator@W4OperandType@Instruction@PLH@@@2@XZ
	?_Getal@?$vector@W4TypeId@_abi_1_10@asmjit@@V?$allocator@W4TypeId@_abi_1_10@asmjit@@@std@@@std@@AEAAAEAV?$allocator@W4TypeId@_abi_1_10@asmjit@@@2@XZ
	?_Getal@?$vector@W4TypeId@_abi_1_10@asmjit@@V?$allocator@W4TypeId@_abi_1_10@asmjit@@@std@@@std@@AEBAAEBV?$allocator@W4TypeId@_abi_1_10@asmjit@@@2@XZ
	?_Getcomp@?$_Tree@V?$_Tmap_traits@G_KU?$less@G@std@@V?$allocator@U?$pair@$$CBG_K@std@@@2@$0A@@std@@@std@@IEBAAEBU?$less@G@2@XZ
	?_Getcomp@?$_Tree@V?$_Tmap_traits@V?$basic_string@DU?$char_traits@D@std@@V?$allocator@D@2@@std@@V12@U?$less@V?$basic_string@DU?$char_traits@D@std@@V?$allocator@D@2@@std@@@2@V?$allocator@U?$pair@$$CBV?$basic_string@DU?$char_traits@D@std@@V?$allocator@D@2@@std@@V12@@std@@@2@$0A@@std@@@std@@IEBAAEBU?$less@V?$basic_string@DU?$char_traits@D@std@@V?$allocator@D@2@@std@@@2@XZ
	?_Getcomp@?$_Tree@V?$_Tmap_traits@W4ZydisRegisterClass_@@W4ZydisRegister_@@U?$less@W4ZydisRegisterClass_@@@std@@V?$allocator@U?$pair@$$CBW4ZydisRegisterClass_@@W4ZydisRegister_@@@std@@@4@$0A@@std@@@std@@IEBAAEBU?$less@W4ZydisRegisterClass_@@@2@XZ
	?_Getcomp@?$_Tree@V?$_Tmap_traits@W4ZydisRegister_@@W41@U?$less@W4ZydisRegister_@@@std@@V?$allocator@U?$pair@$$CBW4ZydisRegister_@@W41@@std@@@3@$0A@@std@@@std@@IEBAAEBU?$less@W4ZydisRegister_@@@2@XZ
	?_Getcomp@?$_Tree@V?$_Tset_traits@V?$basic_string@DU?$char_traits@D@std@@V?$allocator@D@2@@std@@U?$less@V?$basic_string@DU?$char_traits@D@std@@V?$allocator@D@2@@std@@@2@V?$allocator@V?$basic_string@DU?$char_traits@D@std@@V?$allocator@D@2@@std@@@2@$0A@@std@@@std@@IEBAAEBU?$less@V?$basic_string@DU?$char_traits@D@std@@V?$allocator@D@2@@std@@@2@XZ
	?_Getimpl@?$_Func_class@XAEAVAssembler@x86@_abi_1_10@asmjit@@@std@@AEBAPEAV?$_Func_base@XAEAVAssembler@x86@_abi_1_10@asmjit@@@2@XZ
	?_Getimpl@?$_Func_class@_NPEAU_EXCEPTION_POINTERS@@PEAK@std@@AEBAPEAV?$_Func_base@_NPEAU_EXCEPTION_POINTERS@@PEAK@2@XZ
	?_Getstate@?$basic_stringbuf@DU?$char_traits@D@std@@V?$allocator@D@2@@std@@CAHH@Z
	?_Has_drive_letter_prefix@filesystem@std@@YA_NQEB_W0@Z
	?_Incref@?$_Ptr_base@VFBAllocator@PLH@@@std@@IEBAXXZ
	?_Incref@?$_Ptr_base@VLogger@PLH@@@std@@IEBAXXZ
	?_Incref@_Ref_count_base@std@@QEAAXXZ
	?_Insert_new_node_before@?$_Hash@V?$_Umap_traits@_KV?$shared_ptr@VFBAllocator@PLH@@@std@@V?$_Uhash_compare@_KU?$hash@_K@std@@U?$equal_to@_K@2@@2@V?$allocator@U?$pair@$$CB_KV?$shared_ptr@VFBAllocator@PLH@@@std@@@std@@@2@$0A@@std@@@std@@IEAAPEAU?$_List_node@U?$pair@$$CB_KV?$shared_ptr@VFBAllocator@PLH@@@std@@@std@@PEAX@2@_KQEAU32@1@Z
	?_Insert_new_node_before@?$_Hash@V?$_Umap_traits@_KV?$vector@VInstruction@PLH@@V?$allocator@VInstruction@PLH@@@std@@@std@@V?$_Uhash_compare@_KU?$hash@_K@std@@U?$equal_to@_K@2@@2@V?$allocator@U?$pair@$$CB_KV?$vector@VInstruction@PLH@@V?$allocator@VInstruction@PLH@@@std@@@std@@@std@@@2@$0A@@std@@@std@@IEAAPEAU?$_List_node@U?$pair@$$CB_KV?$vector@VInstruction@PLH@@V?$allocator@VInstruction@PLH@@@std@@@std@@@std@@PEAX@2@_KQEAU32@1@Z
	?_Insert_new_node_before@?$_Hash@V?$_Uset_traits@UAVehHookImpEntry@PLH@@V?$_Uhash_compare@UAVehHookImpEntry@PLH@@U?$hash@UAVehHookImpEntry@PLH@@@std@@U?$equal_to@UAVehHookImpEntry@PLH@@@4@@std@@V?$allocator@UAVehHookImpEntry@PLH@@@4@$0A@@std@@@std@@IEAAPEAU?$_List_node@UAVehHookImpEntry@PLH@@PEAX@2@_KQEAU32@1@Z
	?_Insert_node@?$_Tree_val@U?$_Tree_simple_types@U?$pair@$$CBG_K@std@@@std@@@std@@QEAAPEAU?$_Tree_node@U?$pair@$$CBG_K@std@@PEAX@2@U?$_Tree_id@PEAU?$_Tree_node@U?$pair@$$CBG_K@std@@PEAX@std@@@2@QEAU32@@Z
	?_Insert_node@?$_Tree_val@U?$_Tree_simple_types@U?$pair@$$CBV?$basic_string@DU?$char_traits@D@std@@V?$allocator@D@2@@std@@V12@@std@@@std@@@std@@QEAAPEAU?$_Tree_node@U?$pair@$$CBV?$basic_string@DU?$char_traits@D@std@@V?$allocator@D@2@@std@@V12@@std@@PEAX@2@U?$_Tree_id@PEAU?$_Tree_node@U?$pair@$$CBV?$basic_string@DU?$char_traits@D@std@@V?$allocator@D@2@@std@@V12@@std@@PEAX@std@@@2@QEAU32@@Z
	?_Insert_node@?$_Tree_val@U?$_Tree_simple_types@U?$pair@$$CBW4ZydisRegisterClass_@@W4ZydisRegister_@@@std@@@std@@@std@@QEAAPEAU?$_Tree_node@U?$pair@$$CBW4ZydisRegisterClass_@@W4ZydisRegister_@@@std@@PEAX@2@U?$_Tree_id@PEAU?$_Tree_node@U?$pair@$$CBW4ZydisRegisterClass_@@W4ZydisRegister_@@@std@@PEAX@std@@@2@QEAU32@@Z
	?_Insert_node@?$_Tree_val@U?$_Tree_simple_types@U?$pair@$$CBW4ZydisRegister_@@W41@@std@@@std@@@std@@QEAAPEAU?$_Tree_node@U?$pair@$$CBW4ZydisRegister_@@W41@@std@@PEAX@2@U?$_Tree_id@PEAU?$_Tree_node@U?$pair@$$CBW4ZydisRegister_@@W41@@std@@PEAX@std@@@2@QEAU32@@Z
	?_Insert_node@?$_Tree_val@U?$_Tree_simple_types@V?$basic_string@DU?$char_traits@D@std@@V?$allocator@D@2@@std@@@std@@@std@@QEAAPEAU?$_Tree_node@V?$basic_string@DU?$char_traits@D@std@@V?$allocator@D@2@@std@@PEAX@2@U?$_Tree_id@PEAU?$_Tree_node@V?$basic_string@DU?$char_traits@D@std@@V?$allocator@D@2@@std@@PEAX@std@@@2@QEAU32@@Z
	?_Is_drive_prefix@filesystem@std@@YA_NQEB_W@Z
	?_Kfn@?$_Tset_traits@V?$basic_string@DU?$char_traits@D@std@@V?$allocator@D@2@@std@@U?$less@V?$basic_string@DU?$char_traits@D@std@@V?$allocator@D@2@@std@@@2@V?$allocator@V?$basic_string@DU?$char_traits@D@std@@V?$allocator@D@2@@std@@@2@$0A@@std@@SAAEBV?$basic_string@DU?$char_traits@D@std@@V?$allocator@D@2@@2@AEBV32@@Z
	?_Kfn@?$_Uset_traits@UAVehHookImpEntry@PLH@@V?$_Uhash_compare@UAVehHookImpEntry@PLH@@U?$hash@UAVehHookImpEntry@PLH@@@std@@U?$equal_to@UAVehHookImpEntry@PLH@@@4@@std@@V?$allocator@UAVehHookImpEntry@PLH@@@4@$0A@@std@@SAAEBUAVehHookImpEntry@PLH@@AEBU34@@Z
	?_Large_mode_engaged@?$_String_val@U?$_Simple_types@D@std@@@std@@QEBA_NXZ
	?_Large_mode_engaged@?$_String_val@U?$_Simple_types@_W@std@@@std@@QEBA_NXZ
	?_Local@?$_Func_class@XAEAVAssembler@x86@_abi_1_10@asmjit@@@std@@AEBA_NXZ
	?_Local@?$_Func_class@_NPEAU_EXCEPTION_POINTERS@@PEAK@std@@AEBA_NXZ
	?_Lrotate@?$_Tree_val@U?$_Tree_simple_types@U?$pair@$$CBG_K@std@@@std@@@std@@QEAAXPEAU?$_Tree_node@U?$pair@$$CBG_K@std@@PEAX@2@@Z
	?_Lrotate@?$_Tree_val@U?$_Tree_simple_types@U?$pair@$$CBV?$basic_string@DU?$char_traits@D@std@@V?$allocator@D@2@@std@@V12@@std@@@std@@@std@@QEAAXPEAU?$_Tree_node@U?$pair@$$CBV?$basic_string@DU?$char_traits@D@std@@V?$allocator@D@2@@std@@V12@@std@@PEAX@2@@Z
	?_Lrotate@?$_Tree_val@U?$_Tree_simple_types@U?$pair@$$CBW4ZydisRegisterClass_@@W4ZydisRegister_@@@std@@@std@@@std@@QEAAXPEAU?$_Tree_node@U?$pair@$$CBW4ZydisRegisterClass_@@W4ZydisRegister_@@@std@@PEAX@2@@Z
	?_Lrotate@?$_Tree_val@U?$_Tree_simple_types@U?$pair@$$CBW4ZydisRegister_@@W41@@std@@@std@@@std@@QEAAXPEAU?$_Tree_node@U?$pair@$$CBW4ZydisRegister_@@W41@@std@@PEAX@2@@Z
	?_Lrotate@?$_Tree_val@U?$_Tree_simple_types@V?$basic_string@DU?$char_traits@D@std@@V?$allocator@D@2@@std@@@std@@@std@@QEAAXPEAU?$_Tree_node@V?$basic_string@DU?$char_traits@D@std@@V?$allocator@D@2@@std@@PEAX@2@@Z
	?_Make_const_iter@?$list@U?$pair@$$CB_KV?$vector@VInstruction@PLH@@V?$allocator@VInstruction@PLH@@@std@@@std@@@std@@V?$allocator@U?$pair@$$CB_KV?$vector@VInstruction@PLH@@V?$allocator@VInstruction@PLH@@@std@@@std@@@std@@@2@@std@@QEBA?AV?$_List_const_iterator@V?$_List_val@U?$_List_simple_types@U?$pair@$$CB_KV?$vector@VInstruction@PLH@@V?$allocator@VInstruction@PLH@@@std@@@std@@@std@@@std@@@std@@@2@PEAU?$_List_node@U?$pair@$$CB_KV?$vector@VInstruction@PLH@@V?$allocator@VInstruction@PLH@@@std@@@std@@@std@@PEAX@2@@Z
	?_Make_iter@?$list@U?$pair@$$CB_KV?$shared_ptr@VFBAllocator@PLH@@@std@@@std@@V?$allocator@U?$pair@$$CB_KV?$shared_ptr@VFBAllocator@PLH@@@std@@@std@@@2@@std@@QEBA?AV?$_List_iterator@V?$_List_val@U?$_List_simple_types@U?$pair@$$CB_KV?$shared_ptr@VFBAllocator@PLH@@@std@@@std@@@std@@@std@@@2@PEAU?$_List_node@U?$pair@$$CB_KV?$shared_ptr@VFBAllocator@PLH@@@std@@@std@@PEAX@2@@Z
	?_Make_iter@?$list@U?$pair@$$CB_KV?$vector@VInstruction@PLH@@V?$allocator@VInstruction@PLH@@@std@@@std@@@std@@V?$allocator@U?$pair@$$CB_KV?$vector@VInstruction@PLH@@V?$allocator@VInstruction@PLH@@@std@@@std@@@std@@@2@@std@@QEBA?AV?$_List_iterator@V?$_List_val@U?$_List_simple_types@U?$pair@$$CB_KV?$vector@VInstruction@PLH@@V?$allocator@VInstruction@PLH@@@std@@@std@@@std@@@std@@@std@@@2@PEAU?$_List_node@U?$pair@$$CB_KV?$vector@VInstruction@PLH@@V?$allocator@VInstruction@PLH@@@std@@@std@@@std@@PEAX@2@@Z
	?_Make_iter@?$list@UAVehHookImpEntry@PLH@@V?$allocator@UAVehHookImpEntry@PLH@@@std@@@std@@QEBA?AV?$_List_iterator@V?$_List_val@U?$_List_simple_types@UAVehHookImpEntry@PLH@@@std@@@std@@@2@PEAU?$_List_node@UAVehHookImpEntry@PLH@@PEAX@2@@Z
	?_Make_iterator@?$vector@VInstruction@PLH@@V?$allocator@VInstruction@PLH@@@std@@@std@@AEAA?AV?$_Vector_iterator@V?$_Vector_val@U?$_Simple_types@VInstruction@PLH@@@std@@@std@@@2@QEAVInstruction@PLH@@@Z
	?_Make_iterator_offset@?$vector@V?$basic_string@DU?$char_traits@D@std@@V?$allocator@D@2@@std@@V?$allocator@V?$basic_string@DU?$char_traits@D@std@@V?$allocator@D@2@@std@@@2@@std@@AEAA?AV?$_Vector_iterator@V?$_Vector_val@U?$_Simple_types@V?$basic_string@DU?$char_traits@D@std@@V?$allocator@D@2@@std@@@std@@@std@@@2@_K@Z
	?_Make_iterator_offset@?$vector@VInstruction@PLH@@V?$allocator@VInstruction@PLH@@@std@@@std@@AEAA?AV?$_Vector_iterator@V?$_Vector_val@U?$_Simple_types@VInstruction@PLH@@@std@@@std@@@2@_K@Z
	?_Maklocwcs@std@@YAPEA_WPEB_W@Z
	?_Max@?$_Tree_val@U?$_Tree_simple_types@U?$pair@$$CBG_K@std@@@std@@@std@@SAPEAU?$_Tree_node@U?$pair@$$CBG_K@std@@PEAX@2@PEAU32@@Z
	?_Max@?$_Tree_val@U?$_Tree_simple_types@U?$pair@$$CBV?$basic_string@DU?$char_traits@D@std@@V?$allocator@D@2@@std@@V12@@std@@@std@@@std@@SAPEAU?$_Tree_node@U?$pair@$$CBV?$basic_string@DU?$char_traits@D@std@@V?$allocator@D@2@@std@@V12@@std@@PEAX@2@PEAU32@@Z
	?_Max@?$_Tree_val@U?$_Tree_simple_types@U?$pair@$$CBW4ZydisRegisterClass_@@W4ZydisRegister_@@@std@@@std@@@std@@SAPEAU?$_Tree_node@U?$pair@$$CBW4ZydisRegisterClass_@@W4ZydisRegister_@@@std@@PEAX@2@PEAU32@@Z
	?_Max@?$_Tree_val@U?$_Tree_simple_types@U?$pair@$$CBW4ZydisRegister_@@W41@@std@@@std@@@std@@SAPEAU?$_Tree_node@U?$pair@$$CBW4ZydisRegister_@@W41@@std@@PEAX@2@PEAU32@@Z
	?_Max@?$_Tree_val@U?$_Tree_simple_types@V?$basic_string@DU?$char_traits@D@std@@V?$allocator@D@2@@std@@@std@@@std@@SAPEAU?$_Tree_node@V?$basic_string@DU?$char_traits@D@std@@V?$allocator@D@2@@std@@PEAX@2@PEAU32@@Z
	?_Max_bucket_size@?$_Hash@V?$_Umap_traits@_KV?$shared_ptr@VFBAllocator@PLH@@@std@@V?$_Uhash_compare@_KU?$hash@_K@std@@U?$equal_to@_K@2@@2@V?$allocator@U?$pair@$$CB_KV?$shared_ptr@VFBAllocator@PLH@@@std@@@std@@@2@$0A@@std@@@std@@IEAAAEAMXZ
	?_Max_bucket_size@?$_Hash@V?$_Umap_traits@_KV?$shared_ptr@VFBAllocator@PLH@@@std@@V?$_Uhash_compare@_KU?$hash@_K@std@@U?$equal_to@_K@2@@2@V?$allocator@U?$pair@$$CB_KV?$shared_ptr@VFBAllocator@PLH@@@std@@@std@@@2@$0A@@std@@@std@@IEBAAEBMXZ
	?_Max_bucket_size@?$_Hash@V?$_Umap_traits@_KV?$vector@VInstruction@PLH@@V?$allocator@VInstruction@PLH@@@std@@@std@@V?$_Uhash_compare@_KU?$hash@_K@std@@U?$equal_to@_K@2@@2@V?$allocator@U?$pair@$$CB_KV?$vector@VInstruction@PLH@@V?$allocator@VInstruction@PLH@@@std@@@std@@@std@@@2@$0A@@std@@@std@@IEAAAEAMXZ
	?_Max_bucket_size@?$_Hash@V?$_Umap_traits@_KV?$vector@VInstruction@PLH@@V?$allocator@VInstruction@PLH@@@std@@@std@@V?$_Uhash_compare@_KU?$hash@_K@std@@U?$equal_to@_K@2@@2@V?$allocator@U?$pair@$$CB_KV?$vector@VInstruction@PLH@@V?$allocator@VInstruction@PLH@@@std@@@std@@@std@@@2@$0A@@std@@@std@@IEBAAEBMXZ
	?_Max_bucket_size@?$_Hash@V?$_Uset_traits@UAVehHookImpEntry@PLH@@V?$_Uhash_compare@UAVehHookImpEntry@PLH@@U?$hash@UAVehHookImpEntry@PLH@@@std@@U?$equal_to@UAVehHookImpEntry@PLH@@@4@@std@@V?$allocator@UAVehHookImpEntry@PLH@@@4@$0A@@std@@@std@@IEAAAEAMXZ
	?_Max_bucket_size@?$_Hash@V?$_Uset_traits@UAVehHookImpEntry@PLH@@V?$_Uhash_compare@UAVehHookImpEntry@PLH@@U?$hash@UAVehHookImpEntry@PLH@@@std@@U?$equal_to@UAVehHookImpEntry@PLH@@@4@@std@@V?$allocator@UAVehHookImpEntry@PLH@@@4@$0A@@std@@@std@@IEBAAEBMXZ
	?_Min@?$_Tree_val@U?$_Tree_simple_types@U?$pair@$$CBG_K@std@@@std@@@std@@SAPEAU?$_Tree_node@U?$pair@$$CBG_K@std@@PEAX@2@PEAU32@@Z
	?_Min@?$_Tree_val@U?$_Tree_simple_types@U?$pair@$$CBV?$basic_string@DU?$char_traits@D@std@@V?$allocator@D@2@@std@@V12@@std@@@std@@@std@@SAPEAU?$_Tree_node@U?$pair@$$CBV?$basic_string@DU?$char_traits@D@std@@V?$allocator@D@2@@std@@V12@@std@@PEAX@2@PEAU32@@Z
	?_Min@?$_Tree_val@U?$_Tree_simple_types@U?$pair@$$CBW4ZydisRegisterClass_@@W4ZydisRegister_@@@std@@@std@@@std@@SAPEAU?$_Tree_node@U?$pair@$$CBW4ZydisRegisterClass_@@W4ZydisRegister_@@@std@@PEAX@2@PEAU32@@Z
	?_Min@?$_Tree_val@U?$_Tree_simple_types@U?$pair@$$CBW4ZydisRegister_@@W41@@std@@@std@@@std@@SAPEAU?$_Tree_node@U?$pair@$$CBW4ZydisRegister_@@W41@@std@@PEAX@2@PEAU32@@Z
	?_Min@?$_Tree_val@U?$_Tree_simple_types@V?$basic_string@DU?$char_traits@D@std@@V?$allocator@D@2@@std@@@std@@@std@@SAPEAU?$_Tree_node@V?$basic_string@DU?$char_traits@D@std@@V?$allocator@D@2@@std@@PEAX@2@PEAU32@@Z
	?_Min_load_factor_buckets@?$_Hash@V?$_Umap_traits@_KV?$shared_ptr@VFBAllocator@PLH@@@std@@V?$_Uhash_compare@_KU?$hash@_K@std@@U?$equal_to@_K@2@@2@V?$allocator@U?$pair@$$CB_KV?$shared_ptr@VFBAllocator@PLH@@@std@@@std@@@2@$0A@@std@@@std@@IEBA_K_K@Z
	?_Min_load_factor_buckets@?$_Hash@V?$_Umap_traits@_KV?$vector@VInstruction@PLH@@V?$allocator@VInstruction@PLH@@@std@@@std@@V?$_Uhash_compare@_KU?$hash@_K@std@@U?$equal_to@_K@2@@2@V?$allocator@U?$pair@$$CB_KV?$vector@VInstruction@PLH@@V?$allocator@VInstruction@PLH@@@std@@@std@@@std@@@2@$0A@@std@@@std@@IEBA_K_K@Z
	?_Min_load_factor_buckets@?$_Hash@V?$_Uset_traits@UAVehHookImpEntry@PLH@@V?$_Uhash_compare@UAVehHookImpEntry@PLH@@U?$hash@UAVehHookImpEntry@PLH@@@std@@U?$equal_to@UAVehHookImpEntry@PLH@@@4@@std@@V?$allocator@UAVehHookImpEntry@PLH@@@4@$0A@@std@@@std@@IEBA_K_K@Z
	?_Mymtx@_Mutex_base@std@@AEAAPEAU_Mtx_internal_imp_t@@XZ
	?_Myptr@?$_String_val@U?$_Simple_types@D@std@@@std@@QEAAPEADXZ
	?_Myptr@?$_String_val@U?$_Simple_types@D@std@@@std@@QEBAPEBDXZ
	?_Myptr@?$_String_val@U?$_Simple_types@_W@std@@@std@@QEBAPEB_WXZ
	?_Orphan_all@_Container_base0@std@@QEAAXXZ
	?_Orphan_non_end@?$_List_val@U?$_List_simple_types@U?$pair@$$CB_KV?$shared_ptr@VFBAllocator@PLH@@@std@@@std@@@std@@@std@@QEAAXXZ
	?_Orphan_non_end@?$_List_val@U?$_List_simple_types@U?$pair@$$CB_KV?$vector@VInstruction@PLH@@V?$allocator@VInstruction@PLH@@@std@@@std@@@std@@@std@@@std@@QEAAXXZ
	?_Orphan_non_end@?$_List_val@U?$_List_simple_types@UAVehHookImpEntry@PLH@@@std@@@std@@QEAAXXZ
	?_Orphan_ptr2@?$_List_val@U?$_List_simple_types@U?$pair@$$CB_KV?$shared_ptr@VFBAllocator@PLH@@@std@@@std@@@std@@@std@@QEAAXPEAU?$_List_node@U?$pair@$$CB_KV?$shared_ptr@VFBAllocator@PLH@@@std@@@std@@PEAX@2@@Z
	?_Orphan_ptr2@?$_List_val@U?$_List_simple_types@UAVehHookImpEntry@PLH@@@std@@@std@@QEAAXPEAU?$_List_node@UAVehHookImpEntry@PLH@@PEAX@2@@Z
	?_Orphan_ptr@?$_Tree_val@U?$_Tree_simple_types@U?$pair@$$CBG_K@std@@@std@@@std@@QEAAXQEAU?$_Tree_node@U?$pair@$$CBG_K@std@@PEAX@2@@Z
	?_Orphan_range@?$vector@EV?$allocator@E@std@@@std@@AEBAXPEAE0@Z
	?_Orphan_range@?$vector@UError@PLH@@V?$allocator@UError@PLH@@@std@@@std@@AEBAXPEAUError@PLH@@0@Z
	?_Orphan_range@?$vector@V?$basic_string@DU?$char_traits@D@std@@V?$allocator@D@2@@std@@V?$allocator@V?$basic_string@DU?$char_traits@D@std@@V?$allocator@D@2@@std@@@2@@std@@AEBAXPEAV?$basic_string@DU?$char_traits@D@std@@V?$allocator@D@2@@2@0@Z
	?_Orphan_range@?$vector@V?$shared_ptr@VFBAllocator@PLH@@@std@@V?$allocator@V?$shared_ptr@VFBAllocator@PLH@@@std@@@2@@std@@AEBAXPEAV?$shared_ptr@VFBAllocator@PLH@@@2@0@Z
	?_Orphan_range@?$vector@VEffect@@V?$allocator@VEffect@@@std@@@std@@AEBAXPEAVEffect@@0@Z
	?_Orphan_range@?$vector@VInstruction@PLH@@V?$allocator@VInstruction@PLH@@@std@@@std@@AEBAXPEAVInstruction@PLH@@0@Z
	?_Orphan_range@?$vector@VReg@x86@_abi_1_10@asmjit@@V?$allocator@VReg@x86@_abi_1_10@asmjit@@@std@@@std@@AEBAXPEAVReg@x86@_abi_1_10@asmjit@@0@Z
	?_Orphan_range@?$vector@W4OperandType@Instruction@PLH@@V?$allocator@W4OperandType@Instruction@PLH@@@std@@@std@@AEBAXPEAW4OperandType@Instruction@PLH@@0@Z
	?_Orphan_range@?$vector@W4TypeId@_abi_1_10@asmjit@@V?$allocator@W4TypeId@_abi_1_10@asmjit@@@std@@@std@@AEBAXPEAW4TypeId@_abi_1_10@asmjit@@0@Z
	?_Rehash_for_1@?$_Hash@V?$_Umap_traits@_KV?$shared_ptr@VFBAllocator@PLH@@@std@@V?$_Uhash_compare@_KU?$hash@_K@std@@U?$equal_to@_K@2@@2@V?$allocator@U?$pair@$$CB_KV?$shared_ptr@VFBAllocator@PLH@@@std@@@std@@@2@$0A@@std@@@std@@IEAAXXZ
	?_Rehash_for_1@?$_Hash@V?$_Umap_traits@_KV?$vector@VInstruction@PLH@@V?$allocator@VInstruction@PLH@@@std@@@std@@V?$_Uhash_compare@_KU?$hash@_K@std@@U?$equal_to@_K@2@@2@V?$allocator@U?$pair@$$CB_KV?$vector@VInstruction@PLH@@V?$allocator@VInstruction@PLH@@@std@@@std@@@std@@@2@$0A@@std@@@std@@IEAAXXZ
	?_Rehash_for_1@?$_Hash@V?$_Uset_traits@UAVehHookImpEntry@PLH@@V?$_Uhash_compare@UAVehHookImpEntry@PLH@@U?$hash@UAVehHookImpEntry@PLH@@@std@@U?$equal_to@UAVehHookImpEntry@PLH@@@4@@std@@V?$allocator@UAVehHookImpEntry@PLH@@@4@$0A@@std@@@std@@IEAAXXZ
	?_Release@?$_Alloc_construct_ptr@V?$allocator@U?$_List_node@U?$pair@$$CB_KV?$shared_ptr@VFBAllocator@PLH@@@std@@@std@@PEAX@std@@@std@@@std@@QEAAPEAU?$_List_node@U?$pair@$$CB_KV?$shared_ptr@VFBAllocator@PLH@@@std@@@std@@PEAX@2@XZ
	?_Release@?$_Alloc_construct_ptr@V?$allocator@U?$_List_node@U?$pair@$$CB_KV?$vector@VInstruction@PLH@@V?$allocator@VInstruction@PLH@@@std@@@std@@@std@@PEAX@std@@@std@@@std@@QEAAPEAU?$_List_node@U?$pair@$$CB_KV?$vector@VInstruction@PLH@@V?$allocator@VInstruction@PLH@@@std@@@std@@@std@@PEAX@2@XZ
	?_Release@?$_Alloc_construct_ptr@V?$allocator@U?$_List_node@UAVehHookImpEntry@PLH@@PEAX@std@@@std@@@std@@QEAAPEAU?$_List_node@UAVehHookImpEntry@PLH@@PEAX@2@XZ
	?_Release@?$_Alloc_construct_ptr@V?$allocator@U?$_Tree_node@U?$pair@$$CBG_K@std@@PEAX@std@@@std@@@std@@QEAAPEAU?$_Tree_node@U?$pair@$$CBG_K@std@@PEAX@2@XZ
	?_Release@?$_Alloc_construct_ptr@V?$allocator@U?$_Tree_node@U?$pair@$$CBV?$basic_string@DU?$char_traits@D@std@@V?$allocator@D@2@@std@@V12@@std@@PEAX@std@@@std@@@std@@QEAAPEAU?$_Tree_node@U?$pair@$$CBV?$basic_string@DU?$char_traits@D@std@@V?$allocator@D@2@@std@@V12@@std@@PEAX@2@XZ
	?_Release@?$_Alloc_construct_ptr@V?$allocator@U?$_Tree_node@U?$pair@$$CBW4ZydisRegisterClass_@@W4ZydisRegister_@@@std@@PEAX@std@@@std@@@std@@QEAAPEAU?$_Tree_node@U?$pair@$$CBW4ZydisRegisterClass_@@W4ZydisRegister_@@@std@@PEAX@2@XZ
	?_Release@?$_Alloc_construct_ptr@V?$allocator@U?$_Tree_node@U?$pair@$$CBW4ZydisRegister_@@W41@@std@@PEAX@std@@@std@@@std@@QEAAPEAU?$_Tree_node@U?$pair@$$CBW4ZydisRegister_@@W41@@std@@PEAX@2@XZ
	?_Release@?$_Alloc_construct_ptr@V?$allocator@U?$_Tree_node@V?$basic_string@DU?$char_traits@D@std@@V?$allocator@D@2@@std@@PEAX@std@@@std@@@std@@QEAAPEAU?$_Tree_node@V?$basic_string@DU?$char_traits@D@std@@V?$allocator@D@2@@std@@PEAX@2@XZ
	?_Release@?$_Tree_head_scoped_ptr@V?$allocator@U?$_Tree_node@U?$pair@$$CBG_K@std@@PEAX@std@@@std@@V?$_Tree_val@U?$_Tree_simple_types@U?$pair@$$CBG_K@std@@@std@@@2@@std@@QEAAXXZ
	?_Release@?$_Uninitialized_backout@PEAV?$_List_unchecked_const_iterator@V?$_List_val@U?$_List_simple_types@UAVehHookImpEntry@PLH@@@std@@@std@@U_Iterator_base0@2@@std@@@std@@QEAAPEAV?$_List_unchecked_const_iterator@V?$_List_val@U?$_List_simple_types@UAVehHookImpEntry@PLH@@@std@@@std@@U_Iterator_base0@2@@2@XZ
	?_Release@?$_Uninitialized_backout@PEAV?$_List_unchecked_iterator@V?$_List_val@U?$_List_simple_types@U?$pair@$$CB_KV?$shared_ptr@VFBAllocator@PLH@@@std@@@std@@@std@@@std@@@std@@@std@@QEAAPEAV?$_List_unchecked_iterator@V?$_List_val@U?$_List_simple_types@U?$pair@$$CB_KV?$shared_ptr@VFBAllocator@PLH@@@std@@@std@@@std@@@std@@@2@XZ
	?_Release@?$_Uninitialized_backout@PEAV?$_List_unchecked_iterator@V?$_List_val@U?$_List_simple_types@U?$pair@$$CB_KV?$vector@VInstruction@PLH@@V?$allocator@VInstruction@PLH@@@std@@@std@@@std@@@std@@@std@@@std@@@std@@QEAAPEAV?$_List_unchecked_iterator@V?$_List_val@U?$_List_simple_types@U?$pair@$$CB_KV?$vector@VInstruction@PLH@@V?$allocator@VInstruction@PLH@@@std@@@std@@@std@@@std@@@std@@@2@XZ
	?_Release@?$_Uninitialized_backout_al@V?$allocator@E@std@@@std@@QEAAPEAEXZ
	?_Release@?$_Uninitialized_backout_al@V?$allocator@UError@PLH@@@std@@@std@@QEAAPEAUError@PLH@@XZ
	?_Release@?$_Uninitialized_backout_al@V?$allocator@V?$basic_string@DU?$char_traits@D@std@@V?$allocator@D@2@@std@@@std@@@std@@QEAAPEAV?$basic_string@DU?$char_traits@D@std@@V?$allocator@D@2@@2@XZ
	?_Release@?$_Uninitialized_backout_al@V?$allocator@V?$shared_ptr@VFBAllocator@PLH@@@std@@@std@@@std@@QEAAPEAV?$shared_ptr@VFBAllocator@PLH@@@2@XZ
	?_Release@?$_Uninitialized_backout_al@V?$allocator@VEffect@@@std@@@std@@QEAAPEAVEffect@@XZ
	?_Release@?$_Uninitialized_backout_al@V?$allocator@VInstruction@PLH@@@std@@@std@@QEAAPEAVInstruction@PLH@@XZ
	?_Release@?$_Uninitialized_backout_al@V?$allocator@VReg@x86@_abi_1_10@asmjit@@@std@@@std@@QEAAPEAVReg@x86@_abi_1_10@asmjit@@XZ
	?_Release@?$_Uninitialized_backout_al@V?$allocator@W4OperandType@Instruction@PLH@@@std@@@std@@QEAAPEAW4OperandType@Instruction@PLH@@XZ
	?_Release@?$_Uninitialized_backout_al@V?$allocator@W4TypeId@_abi_1_10@asmjit@@@std@@@std@@QEAAPEAW4TypeId@_abi_1_10@asmjit@@XZ
	?_Release@_Fake_proxy_ptr_impl@std@@QEAAXXZ
	?_Rrotate@?$_Tree_val@U?$_Tree_simple_types@U?$pair@$$CBG_K@std@@@std@@@std@@QEAAXPEAU?$_Tree_node@U?$pair@$$CBG_K@std@@PEAX@2@@Z
	?_Rrotate@?$_Tree_val@U?$_Tree_simple_types@U?$pair@$$CBV?$basic_string@DU?$char_traits@D@std@@V?$allocator@D@2@@std@@V12@@std@@@std@@@std@@QEAAXPEAU?$_Tree_node@U?$pair@$$CBV?$basic_string@DU?$char_traits@D@std@@V?$allocator@D@2@@std@@V12@@std@@PEAX@2@@Z
	?_Rrotate@?$_Tree_val@U?$_Tree_simple_types@U?$pair@$$CBW4ZydisRegisterClass_@@W4ZydisRegister_@@@std@@@std@@@std@@QEAAXPEAU?$_Tree_node@U?$pair@$$CBW4ZydisRegisterClass_@@W4ZydisRegister_@@@std@@PEAX@2@@Z
	?_Rrotate@?$_Tree_val@U?$_Tree_simple_types@U?$pair@$$CBW4ZydisRegister_@@W41@@std@@@std@@@std@@QEAAXPEAU?$_Tree_node@U?$pair@$$CBW4ZydisRegister_@@W41@@std@@PEAX@2@@Z
	?_Rrotate@?$_Tree_val@U?$_Tree_simple_types@V?$basic_string@DU?$char_traits@D@std@@V?$allocator@D@2@@std@@@std@@@std@@QEAAXPEAU?$_Tree_node@V?$basic_string@DU?$char_traits@D@std@@V?$allocator@D@2@@std@@PEAX@2@@Z
	?_Seek_to@?$_Vector_const_iterator@V?$_Vector_val@U?$_Simple_types@V?$shared_ptr@VFBAllocator@PLH@@@std@@@std@@@std@@@std@@QEAAXPEBV?$shared_ptr@VFBAllocator@PLH@@@2@@Z
	?_Seek_to@?$_Vector_const_iterator@V?$_Vector_val@U?$_Simple_types@VInstruction@PLH@@@std@@@std@@@std@@QEAAXPEBVInstruction@PLH@@@Z
	?_Set@?$_Func_class@XAEAVAssembler@x86@_abi_1_10@asmjit@@@std@@AEAAXPEAV?$_Func_base@XAEAVAssembler@x86@_abi_1_10@asmjit@@@2@@Z
	?_Set@?$_Func_class@_NPEAU_EXCEPTION_POINTERS@@PEAK@std@@AEAAXPEAV?$_Func_base@_NPEAU_EXCEPTION_POINTERS@@PEAK@2@@Z
	?_Swap@?$_Ptr_base@VFBAllocator@PLH@@@std@@IEAAXAEAV12@@Z
	?_Swap@?$_Ptr_base@VLogger@PLH@@@std@@IEAAXAEAV12@@Z
	?_Swap_proxy_and_iterators@?$basic_string@DU?$char_traits@D@std@@V?$allocator@D@2@@std@@AEAAXAEAV12@@Z
	?_Swap_proxy_and_iterators@?$basic_string@_WU?$char_traits@_W@std@@V?$allocator@_W@2@@std@@AEAAXAEAV12@@Z
	?_Swap_proxy_and_iterators@_Container_base0@std@@QEAAXAEAU12@@Z
	?_Switch_to_buf@_Bxty@?$_String_val@U?$_Simple_types@D@std@@@std@@QEAAXXZ
	?_Switch_to_buf@_Bxty@?$_String_val@U?$_Simple_types@_W@std@@@std@@QEAAXXZ
	?_Take_contents@?$_Vector_val@U?$_Simple_types@E@std@@@std@@QEAAXAEAV12@@Z
	?_Take_contents@?$_Vector_val@U?$_Simple_types@VInstruction@PLH@@@std@@@std@@QEAAXAEAV12@@Z
	?_Take_contents@?$_Vector_val@U?$_Simple_types@W4OperandType@Instruction@PLH@@@std@@@std@@QEAAXAEAV12@@Z
	?_Take_contents@?$basic_string@DU?$char_traits@D@std@@V?$allocator@D@2@@std@@AEAAXAEAV12@@Z
	?_Take_contents@?$basic_string@_WU?$char_traits@_W@std@@V?$allocator@_W@2@@std@@AEAAXAEAV12@@Z
	?_Throw_bad_array_new_length@std@@YAXXZ
	?_Throw_tree_length_error@std@@YAXXZ
	?_Tidy@?$_Func_class@XAEAVAssembler@x86@_abi_1_10@asmjit@@@std@@IEAAXXZ
	?_Tidy@?$_Func_class@_NPEAU_EXCEPTION_POINTERS@@PEAK@std@@IEAAXXZ
	?_Tidy@?$_Hash_vec@V?$allocator@V?$_List_unchecked_const_iterator@V?$_List_val@U?$_List_simple_types@UAVehHookImpEntry@PLH@@@std@@@std@@U_Iterator_base0@2@@std@@@std@@@std@@QEAAXXZ
	?_Tidy@?$_Hash_vec@V?$allocator@V?$_List_unchecked_iterator@V?$_List_val@U?$_List_simple_types@U?$pair@$$CB_KV?$shared_ptr@VFBAllocator@PLH@@@std@@@std@@@std@@@std@@@std@@@std@@@std@@QEAAXXZ
	?_Tidy@?$_Hash_vec@V?$allocator@V?$_List_unchecked_iterator@V?$_List_val@U?$_List_simple_types@U?$pair@$$CB_KV?$vector@VInstruction@PLH@@V?$allocator@VInstruction@PLH@@@std@@@std@@@std@@@std@@@std@@@std@@@std@@@std@@QEAAXXZ
	?_Tidy@?$basic_stringbuf@DU?$char_traits@D@std@@V?$allocator@D@2@@std@@IEAAXXZ
	?_Tidy@?$list@U?$pair@$$CB_KV?$shared_ptr@VFBAllocator@PLH@@@std@@@std@@V?$allocator@U?$pair@$$CB_KV?$shared_ptr@VFBAllocator@PLH@@@std@@@std@@@2@@std@@AEAAXXZ
	?_Tidy@?$list@U?$pair@$$CB_KV?$vector@VInstruction@PLH@@V?$allocator@VInstruction@PLH@@@std@@@std@@@std@@V?$allocator@U?$pair@$$CB_KV?$vector@VInstruction@PLH@@V?$allocator@VInstruction@PLH@@@std@@@std@@@std@@@2@@std@@AEAAXXZ
	?_Tidy@?$list@UAVehHookImpEntry@PLH@@V?$allocator@UAVehHookImpEntry@PLH@@@std@@@std@@AEAAXXZ
	?_Tidy@?$vector@EV?$allocator@E@std@@@std@@AEAAXXZ
	?_Tidy@?$vector@UError@PLH@@V?$allocator@UError@PLH@@@std@@@std@@AEAAXXZ
	?_Tidy@?$vector@V?$basic_string@DU?$char_traits@D@std@@V?$allocator@D@2@@std@@V?$allocator@V?$basic_string@DU?$char_traits@D@std@@V?$allocator@D@2@@std@@@2@@std@@AEAAXXZ
	?_Tidy@?$vector@V?$shared_ptr@VFBAllocator@PLH@@@std@@V?$allocator@V?$shared_ptr@VFBAllocator@PLH@@@std@@@2@@std@@AEAAXXZ
	?_Tidy@?$vector@VInstruction@PLH@@V?$allocator@VInstruction@PLH@@@std@@@std@@AEAAXXZ
	?_Tidy@?$vector@VReg@x86@_abi_1_10@asmjit@@V?$allocator@VReg@x86@_abi_1_10@asmjit@@@std@@@std@@AEAAXXZ
	?_Tidy@?$vector@W4OperandType@Instruction@PLH@@V?$allocator@W4OperandType@Instruction@PLH@@@std@@@std@@AEAAXXZ
	?_Tidy@?$vector@W4TypeId@_abi_1_10@asmjit@@V?$allocator@W4TypeId@_abi_1_10@asmjit@@@std@@@std@@AEAAXXZ
	?_Tidy_deallocate@?$basic_string@DU?$char_traits@D@std@@V?$allocator@D@2@@std@@AEAAXXZ
	?_Tidy_deallocate@?$basic_string@_WU?$char_traits@_W@std@@V?$allocator@_W@2@@std@@AEAAXXZ
	?_Unchecked_begin@?$_Hash@V?$_Umap_traits@_KV?$shared_ptr@VFBAllocator@PLH@@@std@@V?$_Uhash_compare@_KU?$hash@_K@std@@U?$equal_to@_K@2@@2@V?$allocator@U?$pair@$$CB_KV?$shared_ptr@VFBAllocator@PLH@@@std@@@std@@@2@$0A@@std@@@std@@QEAA?AV?$_List_unchecked_iterator@V?$_List_val@U?$_List_simple_types@U?$pair@$$CB_KV?$shared_ptr@VFBAllocator@PLH@@@std@@@std@@@std@@@std@@@2@XZ
	?_Unchecked_begin@?$_Hash@V?$_Umap_traits@_KV?$vector@VInstruction@PLH@@V?$allocator@VInstruction@PLH@@@std@@@std@@V?$_Uhash_compare@_KU?$hash@_K@std@@U?$equal_to@_K@2@@2@V?$allocator@U?$pair@$$CB_KV?$vector@VInstruction@PLH@@V?$allocator@VInstruction@PLH@@@std@@@std@@@std@@@2@$0A@@std@@@std@@QEAA?AV?$_List_unchecked_iterator@V?$_List_val@U?$_List_simple_types@U?$pair@$$CB_KV?$vector@VInstruction@PLH@@V?$allocator@VInstruction@PLH@@@std@@@std@@@std@@@std@@@std@@@2@XZ
	?_Unchecked_begin@?$_Hash@V?$_Uset_traits@UAVehHookImpEntry@PLH@@V?$_Uhash_compare@UAVehHookImpEntry@PLH@@U?$hash@UAVehHookImpEntry@PLH@@@std@@U?$equal_to@UAVehHookImpEntry@PLH@@@4@@std@@V?$allocator@UAVehHookImpEntry@PLH@@@4@$0A@@std@@@std@@QEAA?AV?$_List_unchecked_const_iterator@V?$_List_val@U?$_List_simple_types@UAVehHookImpEntry@PLH@@@std@@@std@@U_Iterator_base0@2@@2@XZ
	?_Unchecked_begin@?$_Tree@V?$_Tmap_traits@G_KU?$less@G@std@@V?$allocator@U?$pair@$$CBG_K@std@@@2@$0A@@std@@@std@@QEAA?AV?$_Tree_unchecked_iterator@V?$_Tree_val@U?$_Tree_simple_types@U?$pair@$$CBG_K@std@@@std@@@std@@@2@XZ
	?_Unchecked_begin@?$list@U?$pair@$$CB_KV?$shared_ptr@VFBAllocator@PLH@@@std@@@std@@V?$allocator@U?$pair@$$CB_KV?$shared_ptr@VFBAllocator@PLH@@@std@@@std@@@2@@std@@QEAA?AV?$_List_unchecked_iterator@V?$_List_val@U?$_List_simple_types@U?$pair@$$CB_KV?$shared_ptr@VFBAllocator@PLH@@@std@@@std@@@std@@@std@@@2@XZ
	?_Unchecked_begin@?$list@U?$pair@$$CB_KV?$vector@VInstruction@PLH@@V?$allocator@VInstruction@PLH@@@std@@@std@@@std@@V?$allocator@U?$pair@$$CB_KV?$vector@VInstruction@PLH@@V?$allocator@VInstruction@PLH@@@std@@@std@@@std@@@2@@std@@QEAA?AV?$_List_unchecked_iterator@V?$_List_val@U?$_List_simple_types@U?$pair@$$CB_KV?$vector@VInstruction@PLH@@V?$allocator@VInstruction@PLH@@@std@@@std@@@std@@@std@@@std@@@2@XZ
	?_Unchecked_begin@?$list@UAVehHookImpEntry@PLH@@V?$allocator@UAVehHookImpEntry@PLH@@@std@@@std@@QEAA?AV?$_List_unchecked_iterator@V?$_List_val@U?$_List_simple_types@UAVehHookImpEntry@PLH@@@std@@@std@@@2@XZ
	?_Unchecked_begin@?$vector@V?$basic_string@DU?$char_traits@D@std@@V?$allocator@D@2@@std@@V?$allocator@V?$basic_string@DU?$char_traits@D@std@@V?$allocator@D@2@@std@@@2@@std@@QEBAPEBV?$basic_string@DU?$char_traits@D@std@@V?$allocator@D@2@@2@XZ
	?_Unchecked_begin@?$vector@V?$shared_ptr@VFBAllocator@PLH@@@std@@V?$allocator@V?$shared_ptr@VFBAllocator@PLH@@@std@@@2@@std@@QEAAPEAV?$shared_ptr@VFBAllocator@PLH@@@2@XZ
	?_Unchecked_begin@?$vector@VInstruction@PLH@@V?$allocator@VInstruction@PLH@@@std@@@std@@QEAAPEAVInstruction@PLH@@XZ
	?_Unchecked_begin@?$vector@VInstruction@PLH@@V?$allocator@VInstruction@PLH@@@std@@@std@@QEBAPEBVInstruction@PLH@@XZ
	?_Unchecked_end@?$_Hash@V?$_Umap_traits@_KV?$shared_ptr@VFBAllocator@PLH@@@std@@V?$_Uhash_compare@_KU?$hash@_K@std@@U?$equal_to@_K@2@@2@V?$allocator@U?$pair@$$CB_KV?$shared_ptr@VFBAllocator@PLH@@@std@@@std@@@2@$0A@@std@@@std@@QEAA?AV?$_List_unchecked_iterator@V?$_List_val@U?$_List_simple_types@U?$pair@$$CB_KV?$shared_ptr@VFBAllocator@PLH@@@std@@@std@@@std@@@std@@@2@XZ
	?_Unchecked_end@?$_Hash@V?$_Umap_traits@_KV?$vector@VInstruction@PLH@@V?$allocator@VInstruction@PLH@@@std@@@std@@V?$_Uhash_compare@_KU?$hash@_K@std@@U?$equal_to@_K@2@@2@V?$allocator@U?$pair@$$CB_KV?$vector@VInstruction@PLH@@V?$allocator@VInstruction@PLH@@@std@@@std@@@std@@@2@$0A@@std@@@std@@QEAA?AV?$_List_unchecked_iterator@V?$_List_val@U?$_List_simple_types@U?$pair@$$CB_KV?$vector@VInstruction@PLH@@V?$allocator@VInstruction@PLH@@@std@@@std@@@std@@@std@@@std@@@2@XZ
	?_Unchecked_end@?$_Hash@V?$_Uset_traits@UAVehHookImpEntry@PLH@@V?$_Uhash_compare@UAVehHookImpEntry@PLH@@U?$hash@UAVehHookImpEntry@PLH@@@std@@U?$equal_to@UAVehHookImpEntry@PLH@@@4@@std@@V?$allocator@UAVehHookImpEntry@PLH@@@4@$0A@@std@@@std@@QEAA?AV?$_List_unchecked_const_iterator@V?$_List_val@U?$_List_simple_types@UAVehHookImpEntry@PLH@@@std@@@std@@U_Iterator_base0@2@@2@XZ
	?_Unchecked_end@?$_Tree@V?$_Tmap_traits@G_KU?$less@G@std@@V?$allocator@U?$pair@$$CBG_K@std@@@2@$0A@@std@@@std@@QEBA?AU_Default_sentinel@2@XZ
	?_Unchecked_end@?$list@U?$pair@$$CB_KV?$shared_ptr@VFBAllocator@PLH@@@std@@@std@@V?$allocator@U?$pair@$$CB_KV?$shared_ptr@VFBAllocator@PLH@@@std@@@std@@@2@@std@@QEAA?AV?$_List_unchecked_iterator@V?$_List_val@U?$_List_simple_types@U?$pair@$$CB_KV?$shared_ptr@VFBAllocator@PLH@@@std@@@std@@@std@@@std@@@2@XZ
	?_Unchecked_end@?$list@U?$pair@$$CB_KV?$vector@VInstruction@PLH@@V?$allocator@VInstruction@PLH@@@std@@@std@@@std@@V?$allocator@U?$pair@$$CB_KV?$vector@VInstruction@PLH@@V?$allocator@VInstruction@PLH@@@std@@@std@@@std@@@2@@std@@QEAA?AV?$_List_unchecked_iterator@V?$_List_val@U?$_List_simple_types@U?$pair@$$CB_KV?$vector@VInstruction@PLH@@V?$allocator@VInstruction@PLH@@@std@@@std@@@std@@@std@@@std@@@2@XZ
	?_Unchecked_end@?$list@UAVehHookImpEntry@PLH@@V?$allocator@UAVehHookImpEntry@PLH@@@std@@@std@@QEAA?AV?$_List_unchecked_iterator@V?$_List_val@U?$_List_simple_types@UAVehHookImpEntry@PLH@@@std@@@std@@@2@XZ
	?_Unchecked_end@?$vector@V?$basic_string@DU?$char_traits@D@std@@V?$allocator@D@2@@std@@V?$allocator@V?$basic_string@DU?$char_traits@D@std@@V?$allocator@D@2@@std@@@2@@std@@QEBAPEBV?$basic_string@DU?$char_traits@D@std@@V?$allocator@D@2@@2@XZ
	?_Unchecked_end@?$vector@V?$shared_ptr@VFBAllocator@PLH@@@std@@V?$allocator@V?$shared_ptr@VFBAllocator@PLH@@@std@@@2@@std@@QEAAPEAV?$shared_ptr@VFBAllocator@PLH@@@2@XZ
	?_Unchecked_end@?$vector@VInstruction@PLH@@V?$allocator@VInstruction@PLH@@@std@@@std@@QEAAPEAVInstruction@PLH@@XZ
	?_Unchecked_end@?$vector@VInstruction@PLH@@V?$allocator@VInstruction@PLH@@@std@@@std@@QEBAPEBVInstruction@PLH@@XZ
	?_Unchecked_erase@?$_Hash@V?$_Umap_traits@_KV?$shared_ptr@VFBAllocator@PLH@@@std@@V?$_Uhash_compare@_KU?$hash@_K@std@@U?$equal_to@_K@2@@2@V?$allocator@U?$pair@$$CB_KV?$shared_ptr@VFBAllocator@PLH@@@std@@@std@@@2@$0A@@std@@@std@@AEAAPEAU?$_List_node@U?$pair@$$CB_KV?$shared_ptr@VFBAllocator@PLH@@@std@@@std@@PEAX@2@PEAU32@QEAU32@@Z
	?_Unchecked_erase@?$_Hash@V?$_Umap_traits@_KV?$vector@VInstruction@PLH@@V?$allocator@VInstruction@PLH@@@std@@@std@@V?$_Uhash_compare@_KU?$hash@_K@std@@U?$equal_to@_K@2@@2@V?$allocator@U?$pair@$$CB_KV?$vector@VInstruction@PLH@@V?$allocator@VInstruction@PLH@@@std@@@std@@@std@@@2@$0A@@std@@@std@@AEAAPEAU?$_List_node@U?$pair@$$CB_KV?$vector@VInstruction@PLH@@V?$allocator@VInstruction@PLH@@@std@@@std@@@std@@PEAX@2@PEAU32@QEAU32@@Z
	?_Unchecked_erase@?$_Hash@V?$_Uset_traits@UAVehHookImpEntry@PLH@@V?$_Uhash_compare@UAVehHookImpEntry@PLH@@U?$hash@UAVehHookImpEntry@PLH@@@std@@U?$equal_to@UAVehHookImpEntry@PLH@@@4@@std@@V?$allocator@UAVehHookImpEntry@PLH@@@4@$0A@@std@@@std@@AEAAPEAU?$_List_node@UAVehHookImpEntry@PLH@@PEAX@2@PEAU32@QEAU32@@Z
	?_Unchecked_erase@?$list@U?$pair@$$CB_KV?$shared_ptr@VFBAllocator@PLH@@@std@@@std@@V?$allocator@U?$pair@$$CB_KV?$shared_ptr@VFBAllocator@PLH@@@std@@@std@@@2@@std@@AEAAPEAU?$_List_node@U?$pair@$$CB_KV?$shared_ptr@VFBAllocator@PLH@@@std@@@std@@PEAX@2@QEAU32@@Z
	?_Unchecked_erase@?$list@UAVehHookImpEntry@PLH@@V?$allocator@UAVehHookImpEntry@PLH@@@std@@@std@@AEAAPEAU?$_List_node@UAVehHookImpEntry@PLH@@PEAX@2@QEAU32@@Z
	?_Unchecked_splice@?$_List_val@U?$_List_simple_types@U?$pair@$$CB_KV?$shared_ptr@VFBAllocator@PLH@@@std@@@std@@@std@@@std@@SAPEAU?$_List_node@U?$pair@$$CB_KV?$shared_ptr@VFBAllocator@PLH@@@std@@@std@@PEAX@2@QEAU32@00@Z
	?_Unchecked_splice@?$_List_val@U?$_List_simple_types@U?$pair@$$CB_KV?$vector@VInstruction@PLH@@V?$allocator@VInstruction@PLH@@@std@@@std@@@std@@@std@@@std@@SAPEAU?$_List_node@U?$pair@$$CB_KV?$vector@VInstruction@PLH@@V?$allocator@VInstruction@PLH@@@std@@@std@@@std@@PEAX@2@QEAU32@00@Z
	?_Unchecked_splice@?$_List_val@U?$_List_simple_types@UAVehHookImpEntry@PLH@@@std@@@std@@SAPEAU?$_List_node@UAVehHookImpEntry@PLH@@PEAX@2@QEAU32@00@Z
	?_Unwrapped@?$_Vector_const_iterator@V?$_Vector_val@U?$_Simple_types@V?$basic_string@DU?$char_traits@D@std@@V?$allocator@D@2@@std@@@std@@@std@@@std@@QEBAPEBV?$basic_string@DU?$char_traits@D@std@@V?$allocator@D@2@@2@XZ
	?_Unwrapped@?$_Vector_const_iterator@V?$_Vector_val@U?$_Simple_types@VInstruction@PLH@@@std@@@std@@@std@@QEBAPEBVInstruction@PLH@@XZ
	?_Unwrapped@?$_Vector_iterator@V?$_Vector_val@U?$_Simple_types@V?$basic_string@DU?$char_traits@D@std@@V?$allocator@D@2@@std@@@std@@@std@@@std@@QEBAPEAV?$basic_string@DU?$char_traits@D@std@@V?$allocator@D@2@@2@XZ
	?_Unwrapped@?$_Vector_iterator@V?$_Vector_val@U?$_Simple_types@V?$shared_ptr@VFBAllocator@PLH@@@std@@@std@@@std@@@std@@QEBAPEAV?$shared_ptr@VFBAllocator@PLH@@@2@XZ
	?_Unwrapped@?$_Vector_iterator@V?$_Vector_val@U?$_Simple_types@VInstruction@PLH@@@std@@@std@@@std@@QEBAPEAVInstruction@PLH@@XZ
	?_Use_count@_Ref_count_base@std@@QEBAJXZ
	?_Verify_offset@?$_Vector_const_iterator@V?$_Vector_val@U?$_Simple_types@VInstruction@PLH@@@std@@@std@@@std@@QEBAX_J@Z
	?_Verify_ownership_levels@_Mutex_base@std@@IEAA_NXZ
	?_Xlen_string@std@@YAXXZ
	?_Xlength@?$vector@EV?$allocator@E@std@@@std@@CAXXZ
	?_Xlength@?$vector@UError@PLH@@V?$allocator@UError@PLH@@@std@@@std@@CAXXZ
	?_Xlength@?$vector@V?$basic_string@DU?$char_traits@D@std@@V?$allocator@D@2@@std@@V?$allocator@V?$basic_string@DU?$char_traits@D@std@@V?$allocator@D@2@@std@@@2@@std@@CAXXZ
	?_Xlength@?$vector@V?$shared_ptr@VFBAllocator@PLH@@@std@@V?$allocator@V?$shared_ptr@VFBAllocator@PLH@@@std@@@2@@std@@CAXXZ
	?_Xlength@?$vector@VEffect@@V?$allocator@VEffect@@@std@@@std@@CAXXZ
	?_Xlength@?$vector@VInstruction@PLH@@V?$allocator@VInstruction@PLH@@@std@@@std@@CAXXZ
	?_Xlength@?$vector@VReg@x86@_abi_1_10@asmjit@@V?$allocator@VReg@x86@_abi_1_10@asmjit@@@std@@@std@@CAXXZ
	?_Xlength@?$vector@W4OperandType@Instruction@PLH@@V?$allocator@W4OperandType@Instruction@PLH@@@std@@@std@@CAXXZ
	?_Xlength@?$vector@W4TypeId@_abi_1_10@asmjit@@V?$allocator@W4TypeId@_abi_1_10@asmjit@@@std@@@std@@CAXXZ
	?_Xran@?$_String_val@U?$_Simple_types@D@std@@@std@@SAXXZ
	?_Xrange@?$vector@EV?$allocator@E@std@@@std@@CAXXZ
	?_Xrange@?$vector@VInstruction@PLH@@V?$allocator@VInstruction@PLH@@@std@@@std@@CAXXZ
	?_Xrange@?$vector@VReg@x86@_abi_1_10@asmjit@@V?$allocator@VReg@x86@_abi_1_10@asmjit@@@std@@@std@@CAXXZ
	?_emitter@?$EmitterExplicitT@VAssembler@x86@_abi_1_10@asmjit@@@x86@_abi_1_10@asmjit@@QEAAPEAVAssembler@234@XZ
	?_emitter@?$EmitterExplicitT@VCompiler@x86@_abi_1_10@asmjit@@@x86@_abi_1_10@asmjit@@QEAAPEAVCompiler@234@XZ
	?_emitter@?$EmitterExplicitT@VCompiler@x86@_abi_1_10@asmjit@@@x86@_abi_1_10@asmjit@@QEBAPEBVCompiler@234@XZ
	?_setArg@InvokeNode@_abi_1_10@asmjit@@QEAAX_K0AEBUOperand_@23@@Z
	?_setIndex@BaseMem@_abi_1_10@asmjit@@QEAAXW4RegType@23@I@Z
	?add@?$EmitterExplicitT@VCompiler@x86@_abi_1_10@asmjit@@@x86@_abi_1_10@asmjit@@QEAAIAEBVGp@234@AEBVImm@34@@Z
	?addDirtyRegs@FuncFrame@_abi_1_10@asmjit@@QEAAXAEBVBaseReg@23@@Z
	?addDirtyRegs@FuncFrame@_abi_1_10@asmjit@@QEAAXW4RegGroup@23@I@Z
	?addFlags@FormatOptions@_abi_1_10@asmjit@@QEAAXW4FormatFlags@23@@Z
	?addFlags@Logger@_abi_1_10@asmjit@@QEAAXW4FormatFlags@23@@Z
	?addFunc@BaseCompiler@_abi_1_10@asmjit@@QEAAPEAVFuncNode@23@AEBUFuncSignature@23@@Z
	?addOperandType@Instruction@PLH@@QEAAXW4OperandType@12@@Z
	?addRet@BaseCompiler@_abi_1_10@asmjit@@QEAAIAEBUOperand_@23@0@Z
	?addToBranchMap@ZydisDisassembler@PLH@@QEAAXAEAV?$vector@VInstruction@PLH@@V?$allocator@VInstruction@PLH@@@std@@@std@@AEBVInstruction@2@@Z
	?allocate@?$allocator@D@std@@QEAAPEAD_K@Z
	?allocate@?$allocator@E@std@@QEAAPEAE_K@Z
	?allocate@?$allocator@U?$_List_node@U?$pair@$$CB_KV?$shared_ptr@VFBAllocator@PLH@@@std@@@std@@PEAX@std@@@std@@QEAAPEAU?$_List_node@U?$pair@$$CB_KV?$shared_ptr@VFBAllocator@PLH@@@std@@@std@@PEAX@2@_K@Z
	?allocate@?$allocator@U?$_List_node@U?$pair@$$CB_KV?$vector@VInstruction@PLH@@V?$allocator@VInstruction@PLH@@@std@@@std@@@std@@PEAX@std@@@std@@QEAAPEAU?$_List_node@U?$pair@$$CB_KV?$vector@VInstruction@PLH@@V?$allocator@VInstruction@PLH@@@std@@@std@@@std@@PEAX@2@_K@Z
	?allocate@?$allocator@U?$_List_node@UAVehHookImpEntry@PLH@@PEAX@std@@@std@@QEAAPEAU?$_List_node@UAVehHookImpEntry@PLH@@PEAX@2@_K@Z
	?allocate@?$allocator@U?$_Tree_node@U?$pair@$$CBG_K@std@@PEAX@std@@@std@@QEAAPEAU?$_Tree_node@U?$pair@$$CBG_K@std@@PEAX@2@_K@Z
	?allocate@?$allocator@U?$_Tree_node@U?$pair@$$CBV?$basic_string@DU?$char_traits@D@std@@V?$allocator@D@2@@std@@V12@@std@@PEAX@std@@@std@@QEAAPEAU?$_Tree_node@U?$pair@$$CBV?$basic_string@DU?$char_traits@D@std@@V?$allocator@D@2@@std@@V12@@std@@PEAX@2@_K@Z
	?allocate@?$allocator@U?$_Tree_node@U?$pair@$$CBW4ZydisRegisterClass_@@W4ZydisRegister_@@@std@@PEAX@std@@@std@@QEAAPEAU?$_Tree_node@U?$pair@$$CBW4ZydisRegisterClass_@@W4ZydisRegister_@@@std@@PEAX@2@_K@Z
	?allocate@?$allocator@U?$_Tree_node@U?$pair@$$CBW4ZydisRegister_@@W41@@std@@PEAX@std@@@std@@QEAAPEAU?$_Tree_node@U?$pair@$$CBW4ZydisRegister_@@W41@@std@@PEAX@2@_K@Z
	?allocate@?$allocator@U?$_Tree_node@V?$basic_string@DU?$char_traits@D@std@@V?$allocator@D@2@@std@@PEAX@std@@@std@@QEAAPEAU?$_Tree_node@V?$basic_string@DU?$char_traits@D@std@@V?$allocator@D@2@@std@@PEAX@2@_K@Z
	?allocate@?$allocator@UError@PLH@@@std@@QEAAPEAUError@PLH@@_K@Z
	?allocate@?$allocator@V?$_List_unchecked_const_iterator@V?$_List_val@U?$_List_simple_types@UAVehHookImpEntry@PLH@@@std@@@std@@U_Iterator_base0@2@@std@@@std@@QEAAPEAV?$_List_unchecked_const_iterator@V?$_List_val@U?$_List_simple_types@UAVehHookImpEntry@PLH@@@std@@@std@@U_Iterator_base0@2@@2@_K@Z
	?allocate@?$allocator@V?$_List_unchecked_iterator@V?$_List_val@U?$_List_simple_types@U?$pair@$$CB_KV?$shared_ptr@VFBAllocator@PLH@@@std@@@std@@@std@@@std@@@std@@@std@@QEAAPEAV?$_List_unchecked_iterator@V?$_List_val@U?$_List_simple_types@U?$pair@$$CB_KV?$shared_ptr@VFBAllocator@PLH@@@std@@@std@@@std@@@std@@@2@_K@Z
	?allocate@?$allocator@V?$_List_unchecked_iterator@V?$_List_val@U?$_List_simple_types@U?$pair@$$CB_KV?$vector@VInstruction@PLH@@V?$allocator@VInstruction@PLH@@@std@@@std@@@std@@@std@@@std@@@std@@@std@@QEAAPEAV?$_List_unchecked_iterator@V?$_List_val@U?$_List_simple_types@U?$pair@$$CB_KV?$vector@VInstruction@PLH@@V?$allocator@VInstruction@PLH@@@std@@@std@@@std@@@std@@@std@@@2@_K@Z
	?allocate@?$allocator@V?$basic_string@DU?$char_traits@D@std@@V?$allocator@D@2@@std@@@std@@QEAAPEAV?$basic_string@DU?$char_traits@D@std@@V?$allocator@D@2@@2@_K@Z
	?allocate@?$allocator@V?$shared_ptr@VFBAllocator@PLH@@@std@@@std@@QEAAPEAV?$shared_ptr@VFBAllocator@PLH@@@2@_K@Z
	?allocate@?$allocator@VEffect@@@std@@QEAAPEAVEffect@@_K@Z
	?allocate@?$allocator@VInstruction@PLH@@@std@@QEAAPEAVInstruction@PLH@@_K@Z
	?allocate@?$allocator@VReg@x86@_abi_1_10@asmjit@@@std@@QEAAPEAVReg@x86@_abi_1_10@asmjit@@_K@Z
	?allocate@?$allocator@W4OperandType@Instruction@PLH@@@std@@QEAAPEAW4OperandType@Instruction@PLH@@_K@Z
	?allocate@?$allocator@W4TypeId@_abi_1_10@asmjit@@@std@@QEAAPEAW4TypeId@_abi_1_10@asmjit@@_K@Z
	?allocate@?$allocator@_W@std@@QEAAPEA_W_K@Z
	?allocate@FBAllocator@PLH@@QEAAPEADXZ
	?allocate@RangeAllocator@PLH@@QEAAPEAD_K0@Z
	?allocate_jump_to_callback@x64Detour@PLH@@IEAA_NXZ
	?append@?$basic_string@DU?$char_traits@D@std@@V?$allocator@D@2@@std@@QEAAAEAV12@AEBV12@@Z
	?append@?$basic_string@DU?$char_traits@D@std@@V?$allocator@D@2@@std@@QEAAAEAV12@QEBD@Z
	?append@?$basic_string@DU?$char_traits@D@std@@V?$allocator@D@2@@std@@QEAAAEAV12@QEBD_K@Z
	?argCount@FuncSignature@_abi_1_10@asmjit@@QEBAIXZ
	?args@FuncSignature@_abi_1_10@asmjit@@QEBAPEBW4TypeId@23@XZ
	?assign@?$_Narrow_char_traits@DH@std@@SAXAEADAEBD@Z
	?assign@?$_WChar_traits@_W@std@@SAXAEA_WAEB_W@Z
	?assign@?$basic_string@DU?$char_traits@D@std@@V?$allocator@D@2@@std@@QEAAAEAV12@QEBD@Z
	?assign@?$basic_string@DU?$char_traits@D@std@@V?$allocator@D@2@@std@@QEAAAEAV12@QEBD_K@Z
	?at@?$map@V?$basic_string@DU?$char_traits@D@std@@V?$allocator@D@2@@std@@V12@U?$less@V?$basic_string@DU?$char_traits@D@std@@V?$allocator@D@2@@std@@@2@V?$allocator@U?$pair@$$CBV?$basic_string@DU?$char_traits@D@std@@V?$allocator@D@2@@std@@V12@@std@@@2@@std@@QEBAAEBV?$basic_string@DU?$char_traits@D@std@@V?$allocator@D@2@@2@AEBV32@@Z
	?at@?$map@W4ZydisRegisterClass_@@W4ZydisRegister_@@U?$less@W4ZydisRegisterClass_@@@std@@V?$allocator@U?$pair@$$CBW4ZydisRegisterClass_@@W4ZydisRegister_@@@std@@@4@@std@@QEBAAEBW4ZydisRegister_@@AEBW4ZydisRegisterClass_@@@Z
	?at@?$map@W4ZydisRegister_@@W41@U?$less@W4ZydisRegister_@@@std@@V?$allocator@U?$pair@$$CBW4ZydisRegister_@@W41@@std@@@3@@std@@QEBAAEBW4ZydisRegister_@@AEBW43@@Z
	?at@?$unordered_map@_KV?$vector@VInstruction@PLH@@V?$allocator@VInstruction@PLH@@@std@@@std@@U?$hash@_K@2@U?$equal_to@_K@2@V?$allocator@U?$pair@$$CB_KV?$vector@VInstruction@PLH@@V?$allocator@VInstruction@PLH@@@std@@@std@@@std@@@2@@std@@QEAAAEAV?$vector@VInstruction@PLH@@V?$allocator@VInstruction@PLH@@@std@@@2@AEB_K@Z
	?at@?$unordered_map@_KV?$vector@VInstruction@PLH@@V?$allocator@VInstruction@PLH@@@std@@@std@@U?$hash@_K@2@U?$equal_to@_K@2@V?$allocator@U?$pair@$$CB_KV?$vector@VInstruction@PLH@@V?$allocator@VInstruction@PLH@@@std@@@std@@@std@@@2@@std@@QEBAAEBV?$vector@VInstruction@PLH@@V?$allocator@VInstruction@PLH@@@std@@@2@AEB_K@Z
	?at@?$vector@EV?$allocator@E@std@@@std@@QEBAAEBE_K@Z
	?at@?$vector@VInstruction@PLH@@V?$allocator@VInstruction@PLH@@@std@@@std@@QEAAAEAVInstruction@PLH@@_K@Z
	?at@?$vector@VReg@x86@_abi_1_10@asmjit@@V?$allocator@VReg@x86@_abi_1_10@asmjit@@@std@@@std@@QEAAAEAVReg@x86@_abi_1_10@asmjit@@_K@Z
	?back@?$vector@UError@PLH@@V?$allocator@UError@PLH@@@std@@@std@@QEAAAEAUError@PLH@@XZ
	?back@?$vector@VEffect@@V?$allocator@VEffect@@@std@@@std@@QEAAAEAVEffect@@XZ
	?begin@?$initializer_list@E@std@@QEBAPEBEXZ
	?begin@?$initializer_list@U?$pair@$$CBV?$basic_string@DU?$char_traits@D@std@@V?$allocator@D@2@@std@@V12@@std@@@std@@QEBAPEBU?$pair@$$CBV?$basic_string@DU?$char_traits@D@std@@V?$allocator@D@2@@std@@V12@@2@XZ
	?begin@?$initializer_list@U?$pair@$$CBW4ZydisRegisterClass_@@W4ZydisRegister_@@@std@@@std@@QEBAPEBU?$pair@$$CBW4ZydisRegisterClass_@@W4ZydisRegister_@@@2@XZ
	?begin@?$initializer_list@U?$pair@$$CBW4ZydisRegister_@@W41@@std@@@std@@QEBAPEBU?$pair@$$CBW4ZydisRegister_@@W41@@2@XZ
	?begin@?$initializer_list@V?$basic_string@DU?$char_traits@D@std@@V?$allocator@D@2@@std@@@std@@QEBAPEBV?$basic_string@DU?$char_traits@D@std@@V?$allocator@D@2@@2@XZ
	?begin@?$initializer_list@VInstruction@PLH@@@std@@QEBAPEBVInstruction@PLH@@XZ
	?begin@?$vector@V?$basic_string@DU?$char_traits@D@std@@V?$allocator@D@2@@std@@V?$allocator@V?$basic_string@DU?$char_traits@D@std@@V?$allocator@D@2@@std@@@2@@std@@QEAA?AV?$_Vector_iterator@V?$_Vector_val@U?$_Simple_types@V?$basic_string@DU?$char_traits@D@std@@V?$allocator@D@2@@std@@@std@@@std@@@2@XZ
	?begin@?$vector@V?$basic_string@DU?$char_traits@D@std@@V?$allocator@D@2@@std@@V?$allocator@V?$basic_string@DU?$char_traits@D@std@@V?$allocator@D@2@@std@@@2@@std@@QEBA?AV?$_Vector_const_iterator@V?$_Vector_val@U?$_Simple_types@V?$basic_string@DU?$char_traits@D@std@@V?$allocator@D@2@@std@@@std@@@std@@@2@XZ
	?begin@?$vector@V?$shared_ptr@VFBAllocator@PLH@@@std@@V?$allocator@V?$shared_ptr@VFBAllocator@PLH@@@std@@@2@@std@@QEAA?AV?$_Vector_iterator@V?$_Vector_val@U?$_Simple_types@V?$shared_ptr@VFBAllocator@PLH@@@std@@@std@@@std@@@2@XZ
	?begin@?$vector@VInstruction@PLH@@V?$allocator@VInstruction@PLH@@@std@@@std@@QEAA?AV?$_Vector_iterator@V?$_Vector_val@U?$_Simple_types@VInstruction@PLH@@@std@@@std@@@2@XZ
	?begin@?$vector@VInstruction@PLH@@V?$allocator@VInstruction@PLH@@@std@@@std@@QEBA?AV?$_Vector_const_iterator@V?$_Vector_val@U?$_Simple_types@VInstruction@PLH@@@std@@@std@@@2@XZ
	?boundAlloc@PLH@@YA_K_K00@Z
	?boundAllocFree@PLH@@YAX_K0@Z
	?boundAllocLegacy@PLH@@YA_K_K00@Z
	?boundedAllocSupported@PLH@@YA_NXZ
	?bucket@?$_Hash@V?$_Umap_traits@_KV?$shared_ptr@VFBAllocator@PLH@@@std@@V?$_Uhash_compare@_KU?$hash@_K@std@@U?$equal_to@_K@2@@2@V?$allocator@U?$pair@$$CB_KV?$shared_ptr@VFBAllocator@PLH@@@std@@@std@@@2@$0A@@std@@@std@@QEBA_KAEB_K@Z
	?bucket@?$_Hash@V?$_Umap_traits@_KV?$vector@VInstruction@PLH@@V?$allocator@VInstruction@PLH@@@std@@@std@@V?$_Uhash_compare@_KU?$hash@_K@std@@U?$equal_to@_K@2@@2@V?$allocator@U?$pair@$$CB_KV?$vector@VInstruction@PLH@@V?$allocator@VInstruction@PLH@@@std@@@std@@@std@@@2@$0A@@std@@@std@@QEBA_KAEB_K@Z
	?bucket@?$_Hash@V?$_Uset_traits@UAVehHookImpEntry@PLH@@V?$_Uhash_compare@UAVehHookImpEntry@PLH@@U?$hash@UAVehHookImpEntry@PLH@@@std@@U?$equal_to@UAVehHookImpEntry@PLH@@@4@@std@@V?$allocator@UAVehHookImpEntry@PLH@@@4@$0A@@std@@@std@@QEBA_KAEBUAVehHookImpEntry@PLH@@@Z
	?bucket_count@?$_Hash@V?$_Umap_traits@_KV?$shared_ptr@VFBAllocator@PLH@@@std@@V?$_Uhash_compare@_KU?$hash@_K@std@@U?$equal_to@_K@2@@2@V?$allocator@U?$pair@$$CB_KV?$shared_ptr@VFBAllocator@PLH@@@std@@@std@@@2@$0A@@std@@@std@@QEBA_KXZ
	?bucket_count@?$_Hash@V?$_Umap_traits@_KV?$vector@VInstruction@PLH@@V?$allocator@VInstruction@PLH@@@std@@@std@@V?$_Uhash_compare@_KU?$hash@_K@std@@U?$equal_to@_K@2@@2@V?$allocator@U?$pair@$$CB_KV?$vector@VInstruction@PLH@@V?$allocator@VInstruction@PLH@@@std@@@std@@@std@@@2@$0A@@std@@@std@@QEBA_KXZ
	?bucket_count@?$_Hash@V?$_Uset_traits@UAVehHookImpEntry@PLH@@V?$_Uhash_compare@UAVehHookImpEntry@PLH@@U?$hash@UAVehHookImpEntry@PLH@@@std@@U?$equal_to@UAVehHookImpEntry@PLH@@@4@@std@@V?$allocator@UAVehHookImpEntry@PLH@@@4@$0A@@std@@@std@@QEBA_KXZ
	?buildRelocationList@Detour@PLH@@KAXAEAV?$vector@VInstruction@PLH@@V?$allocator@VInstruction@PLH@@@std@@@std@@_K_J000@Z
	?c_str@?$basic_string@DU?$char_traits@D@std@@V?$allocator@D@2@@std@@QEBAPEBDXZ
	?c_str@?$basic_string@_WU?$char_traits@_W@std@@V?$allocator@_W@2@@std@@QEBAPEB_WXZ
	?calcInstsSz@PLH@@YAGAEBV?$vector@VInstruction@PLH@@V?$allocator@VInstruction@PLH@@@std@@@std@@@Z
	?calcNearestSz@Detour@PLH@@KA?AV?$optional@V?$vector@VInstruction@PLH@@V?$allocator@VInstruction@PLH@@@std@@@std@@@std@@AEBV?$vector@VInstruction@PLH@@V?$allocator@VInstruction@PLH@@@std@@@4@_KAEA_K@Z
	?calc_2gb_above@PLH@@YA_K_K@Z
	?calc_2gb_below@PLH@@YA_K_K@Z
	?callocate@FBAllocator@PLH@@QEAAPEADE@Z
	?capacity@?$_Hash_vec@V?$allocator@V?$_List_unchecked_const_iterator@V?$_List_val@U?$_List_simple_types@UAVehHookImpEntry@PLH@@@std@@@std@@U_Iterator_base0@2@@std@@@std@@@std@@QEBA_KXZ
	?capacity@?$_Hash_vec@V?$allocator@V?$_List_unchecked_iterator@V?$_List_val@U?$_List_simple_types@U?$pair@$$CB_KV?$shared_ptr@VFBAllocator@PLH@@@std@@@std@@@std@@@std@@@std@@@std@@@std@@QEBA_KXZ
	?capacity@?$_Hash_vec@V?$allocator@V?$_List_unchecked_iterator@V?$_List_val@U?$_List_simple_types@U?$pair@$$CB_KV?$vector@VInstruction@PLH@@V?$allocator@VInstruction@PLH@@@std@@@std@@@std@@@std@@@std@@@std@@@std@@@std@@QEBA_KXZ
	?capacity@?$vector@EV?$allocator@E@std@@@std@@QEBA_KXZ
	?capacity@?$vector@UError@PLH@@V?$allocator@UError@PLH@@@std@@@std@@QEBA_KXZ
	?capacity@?$vector@V?$basic_string@DU?$char_traits@D@std@@V?$allocator@D@2@@std@@V?$allocator@V?$basic_string@DU?$char_traits@D@std@@V?$allocator@D@2@@std@@@2@@std@@QEBA_KXZ
	?capacity@?$vector@V?$shared_ptr@VFBAllocator@PLH@@@std@@V?$allocator@V?$shared_ptr@VFBAllocator@PLH@@@std@@@2@@std@@QEBA_KXZ
	?capacity@?$vector@VEffect@@V?$allocator@VEffect@@@std@@@std@@QEBA_KXZ
	?capacity@?$vector@VInstruction@PLH@@V?$allocator@VInstruction@PLH@@@std@@@std@@QEBA_KXZ
	?capacity@?$vector@VReg@x86@_abi_1_10@asmjit@@V?$allocator@VReg@x86@_abi_1_10@asmjit@@@std@@@std@@QEBA_KXZ
	?capacity@?$vector@W4OperandType@Instruction@PLH@@V?$allocator@W4OperandType@Instruction@PLH@@@std@@@std@@QEBA_KXZ
	?capacity@?$vector@W4TypeId@_abi_1_10@asmjit@@V?$allocator@W4TypeId@_abi_1_10@asmjit@@@std@@@std@@QEBA_KXZ
	?cbegin@?$vector@VInstruction@PLH@@V?$allocator@VInstruction@PLH@@@std@@@std@@QEBA?AV?$_Vector_const_iterator@V?$_Vector_val@U?$_Simple_types@VInstruction@PLH@@@std@@@std@@@2@XZ
	?cend@?$vector@VInstruction@PLH@@V?$allocator@VInstruction@PLH@@@std@@@std@@QEBA?AV?$_Vector_const_iterator@V?$_Vector_val@U?$_Simple_types@VInstruction@PLH@@@std@@@std@@@2@XZ
	?clear@?$_Hash@V?$_Umap_traits@_KV?$shared_ptr@VFBAllocator@PLH@@@std@@V?$_Uhash_compare@_KU?$hash@_K@std@@U?$equal_to@_K@2@@2@V?$allocator@U?$pair@$$CB_KV?$shared_ptr@VFBAllocator@PLH@@@std@@@std@@@2@$0A@@std@@@std@@QEAAXXZ
	?clear@?$_Hash@V?$_Umap_traits@_KV?$vector@VInstruction@PLH@@V?$allocator@VInstruction@PLH@@@std@@@std@@V?$_Uhash_compare@_KU?$hash@_K@std@@U?$equal_to@_K@2@@2@V?$allocator@U?$pair@$$CB_KV?$vector@VInstruction@PLH@@V?$allocator@VInstruction@PLH@@@std@@@std@@@std@@@2@$0A@@std@@@std@@QEAAXXZ
	?clear@?$_Hash@V?$_Uset_traits@UAVehHookImpEntry@PLH@@V?$_Uhash_compare@UAVehHookImpEntry@PLH@@U?$hash@UAVehHookImpEntry@PLH@@@std@@U?$equal_to@UAVehHookImpEntry@PLH@@@4@@std@@V?$allocator@UAVehHookImpEntry@PLH@@@4@$0A@@std@@@std@@QEAAXXZ
	?clear@?$_Tree@V?$_Tmap_traits@G_KU?$less@G@std@@V?$allocator@U?$pair@$$CBG_K@std@@@2@$0A@@std@@@std@@QEAAXXZ
	?clear@?$list@U?$pair@$$CB_KV?$shared_ptr@VFBAllocator@PLH@@@std@@@std@@V?$allocator@U?$pair@$$CB_KV?$shared_ptr@VFBAllocator@PLH@@@std@@@std@@@2@@std@@QEAAXXZ
	?clear@?$list@U?$pair@$$CB_KV?$vector@VInstruction@PLH@@V?$allocator@VInstruction@PLH@@@std@@@std@@@std@@V?$allocator@U?$pair@$$CB_KV?$vector@VInstruction@PLH@@V?$allocator@VInstruction@PLH@@@std@@@std@@@std@@@2@@std@@QEAAXXZ
	?clear@?$list@UAVehHookImpEntry@PLH@@V?$allocator@UAVehHookImpEntry@PLH@@@std@@@std@@QEAAXXZ
	?clearAttributes@FuncFrame@_abi_1_10@asmjit@@QEAAXW4FuncAttributes@23@@Z
	?compare@?$_Narrow_char_traits@DH@std@@SAHQEBD0_K@Z
	?compare@?$basic_string@DU?$char_traits@D@std@@V?$allocator@D@2@@std@@QEBAHAEBV12@@Z
	?copy@?$_Char_traits@DH@std@@SAPEADQEADQEBD_K@Z
	?copy@?$_Char_traits@_WG@std@@SAPEA_WQEA_WQEB_W_K@Z
	?copyFrom@Operand_@_abi_1_10@asmjit@@QEAAXAEBU123@@Z
	?count@?$_Tree@V?$_Tmap_traits@V?$basic_string@DU?$char_traits@D@std@@V?$allocator@D@2@@std@@V12@U?$less@V?$basic_string@DU?$char_traits@D@std@@V?$allocator@D@2@@std@@@2@V?$allocator@U?$pair@$$CBV?$basic_string@DU?$char_traits@D@std@@V?$allocator@D@2@@std@@V12@@std@@@2@$0A@@std@@@std@@QEBA_KAEBV?$basic_string@DU?$char_traits@D@std@@V?$allocator@D@2@@2@@Z
	?count@?$_Tree@V?$_Tmap_traits@W4ZydisRegisterClass_@@W4ZydisRegister_@@U?$less@W4ZydisRegisterClass_@@@std@@V?$allocator@U?$pair@$$CBW4ZydisRegisterClass_@@W4ZydisRegister_@@@std@@@4@$0A@@std@@@std@@QEBA_KAEBW4ZydisRegisterClass_@@@Z
	?count@?$_Tree@V?$_Tmap_traits@W4ZydisRegister_@@W41@U?$less@W4ZydisRegister_@@@std@@V?$allocator@U?$pair@$$CBW4ZydisRegister_@@W41@@std@@@3@$0A@@std@@@std@@QEBA_KAEBW4ZydisRegister_@@@Z
	?count@?$_Tree@V?$_Tset_traits@V?$basic_string@DU?$char_traits@D@std@@V?$allocator@D@2@@std@@U?$less@V?$basic_string@DU?$char_traits@D@std@@V?$allocator@D@2@@std@@@2@V?$allocator@V?$basic_string@DU?$char_traits@D@std@@V?$allocator@D@2@@std@@@2@$0A@@std@@@std@@QEBA_KAEBV?$basic_string@DU?$char_traits@D@std@@V?$allocator@D@2@@2@@Z
	?countVFuncs@VFuncSwapHook@PLH@@IEAAGXZ
	?countVFuncs@VTableSwapHook@PLH@@IEAAGXZ
	?data@?$basic_string@DU?$char_traits@D@std@@V?$allocator@D@2@@std@@QEBAPEBDXZ
	?data@?$basic_string@_WU?$char_traits@_W@std@@V?$allocator@_W@2@@std@@QEBAPEB_WXZ
	?data@?$basic_string_view@_WU?$char_traits@_W@std@@@std@@QEBAPEB_WXZ
	?data@?$basic_string_view@_WUci_wchar_traits@PLH@@@std@@QEBAPEB_WXZ
	?data@?$vector@EV?$allocator@E@std@@@std@@QEAAPEAEXZ
	?data@?$vector@W4TypeId@_abi_1_10@asmjit@@V?$allocator@W4TypeId@_abi_1_10@asmjit@@@std@@@std@@QEAAPEAW4TypeId@_abi_1_10@asmjit@@XZ
	?data@String@_abi_1_10@asmjit@@QEBAPEBDXZ
	?data@StringLogger@_abi_1_10@asmjit@@QEBAPEBDXZ
	?deallocate@?$_Default_allocator_traits@V?$allocator@U?$_List_node@U?$pair@$$CB_KV?$shared_ptr@VFBAllocator@PLH@@@std@@@std@@PEAX@std@@@std@@@std@@SAXAEAV?$allocator@U?$_List_node@U?$pair@$$CB_KV?$shared_ptr@VFBAllocator@PLH@@@std@@@std@@PEAX@std@@@2@QEAU?$_List_node@U?$pair@$$CB_KV?$shared_ptr@VFBAllocator@PLH@@@std@@@std@@PEAX@2@_K@Z
	?deallocate@?$_Default_allocator_traits@V?$allocator@U?$_List_node@U?$pair@$$CB_KV?$vector@VInstruction@PLH@@V?$allocator@VInstruction@PLH@@@std@@@std@@@std@@PEAX@std@@@std@@@std@@SAXAEAV?$allocator@U?$_List_node@U?$pair@$$CB_KV?$vector@VInstruction@PLH@@V?$allocator@VInstruction@PLH@@@std@@@std@@@std@@PEAX@std@@@2@QEAU?$_List_node@U?$pair@$$CB_KV?$vector@VInstruction@PLH@@V?$allocator@VInstruction@PLH@@@std@@@std@@@std@@PEAX@2@_K@Z
	?deallocate@?$_Default_allocator_traits@V?$allocator@U?$_List_node@UAVehHookImpEntry@PLH@@PEAX@std@@@std@@@std@@SAXAEAV?$allocator@U?$_List_node@UAVehHookImpEntry@PLH@@PEAX@std@@@2@QEAU?$_List_node@UAVehHookImpEntry@PLH@@PEAX@2@_K@Z
	?deallocate@?$_Default_allocator_traits@V?$allocator@U?$_Tree_node@U?$pair@$$CBG_K@std@@PEAX@std@@@std@@@std@@SAXAEAV?$allocator@U?$_Tree_node@U?$pair@$$CBG_K@std@@PEAX@std@@@2@QEAU?$_Tree_node@U?$pair@$$CBG_K@std@@PEAX@2@_K@Z
	?deallocate@?$_Default_allocator_traits@V?$allocator@U?$_Tree_node@U?$pair@$$CBV?$basic_string@DU?$char_traits@D@std@@V?$allocator@D@2@@std@@V12@@std@@PEAX@std@@@std@@@std@@SAXAEAV?$allocator@U?$_Tree_node@U?$pair@$$CBV?$basic_string@DU?$char_traits@D@std@@V?$allocator@D@2@@std@@V12@@std@@PEAX@std@@@2@QEAU?$_Tree_node@U?$pair@$$CBV?$basic_string@DU?$char_traits@D@std@@V?$allocator@D@2@@std@@V12@@std@@PEAX@2@_K@Z
	?deallocate@?$_Default_allocator_traits@V?$allocator@U?$_Tree_node@U?$pair@$$CBW4ZydisRegisterClass_@@W4ZydisRegister_@@@std@@PEAX@std@@@std@@@std@@SAXAEAV?$allocator@U?$_Tree_node@U?$pair@$$CBW4ZydisRegisterClass_@@W4ZydisRegister_@@@std@@PEAX@std@@@2@QEAU?$_Tree_node@U?$pair@$$CBW4ZydisRegisterClass_@@W4ZydisRegister_@@@std@@PEAX@2@_K@Z
	?deallocate@?$_Default_allocator_traits@V?$allocator@U?$_Tree_node@U?$pair@$$CBW4ZydisRegister_@@W41@@std@@PEAX@std@@@std@@@std@@SAXAEAV?$allocator@U?$_Tree_node@U?$pair@$$CBW4ZydisRegister_@@W41@@std@@PEAX@std@@@2@QEAU?$_Tree_node@U?$pair@$$CBW4ZydisRegister_@@W41@@std@@PEAX@2@_K@Z
	?deallocate@?$_Default_allocator_traits@V?$allocator@U?$_Tree_node@V?$basic_string@DU?$char_traits@D@std@@V?$allocator@D@2@@std@@PEAX@std@@@std@@@std@@SAXAEAV?$allocator@U?$_Tree_node@V?$basic_string@DU?$char_traits@D@std@@V?$allocator@D@2@@std@@PEAX@std@@@2@QEAU?$_Tree_node@V?$basic_string@DU?$char_traits@D@std@@V?$allocator@D@2@@std@@PEAX@2@_K@Z
	?deallocate@?$allocator@D@std@@QEAAXQEAD_K@Z
	?deallocate@?$allocator@E@std@@QEAAXQEAE_K@Z
	?deallocate@?$allocator@U?$_List_node@U?$pair@$$CB_KV?$shared_ptr@VFBAllocator@PLH@@@std@@@std@@PEAX@std@@@std@@QEAAXQEAU?$_List_node@U?$pair@$$CB_KV?$shared_ptr@VFBAllocator@PLH@@@std@@@std@@PEAX@2@_K@Z
	?deallocate@?$allocator@U?$_List_node@U?$pair@$$CB_KV?$vector@VInstruction@PLH@@V?$allocator@VInstruction@PLH@@@std@@@std@@@std@@PEAX@std@@@std@@QEAAXQEAU?$_List_node@U?$pair@$$CB_KV?$vector@VInstruction@PLH@@V?$allocator@VInstruction@PLH@@@std@@@std@@@std@@PEAX@2@_K@Z
	?deallocate@?$allocator@U?$_List_node@UAVehHookImpEntry@PLH@@PEAX@std@@@std@@QEAAXQEAU?$_List_node@UAVehHookImpEntry@PLH@@PEAX@2@_K@Z
	?deallocate@?$allocator@U?$_Tree_node@U?$pair@$$CBG_K@std@@PEAX@std@@@std@@QEAAXQEAU?$_Tree_node@U?$pair@$$CBG_K@std@@PEAX@2@_K@Z
	?deallocate@?$allocator@U?$_Tree_node@U?$pair@$$CBV?$basic_string@DU?$char_traits@D@std@@V?$allocator@D@2@@std@@V12@@std@@PEAX@std@@@std@@QEAAXQEAU?$_Tree_node@U?$pair@$$CBV?$basic_string@DU?$char_traits@D@std@@V?$allocator@D@2@@std@@V12@@std@@PEAX@2@_K@Z
	?deallocate@?$allocator@U?$_Tree_node@U?$pair@$$CBW4ZydisRegisterClass_@@W4ZydisRegister_@@@std@@PEAX@std@@@std@@QEAAXQEAU?$_Tree_node@U?$pair@$$CBW4ZydisRegisterClass_@@W4ZydisRegister_@@@std@@PEAX@2@_K@Z
	?deallocate@?$allocator@U?$_Tree_node@U?$pair@$$CBW4ZydisRegister_@@W41@@std@@PEAX@std@@@std@@QEAAXQEAU?$_Tree_node@U?$pair@$$CBW4ZydisRegister_@@W41@@std@@PEAX@2@_K@Z
	?deallocate@?$allocator@U?$_Tree_node@V?$basic_string@DU?$char_traits@D@std@@V?$allocator@D@2@@std@@PEAX@std@@@std@@QEAAXQEAU?$_Tree_node@V?$basic_string@DU?$char_traits@D@std@@V?$allocator@D@2@@std@@PEAX@2@_K@Z
	?deallocate@?$allocator@UError@PLH@@@std@@QEAAXQEAUError@PLH@@_K@Z
	?deallocate@?$allocator@V?$_List_unchecked_const_iterator@V?$_List_val@U?$_List_simple_types@UAVehHookImpEntry@PLH@@@std@@@std@@U_Iterator_base0@2@@std@@@std@@QEAAXQEAV?$_List_unchecked_const_iterator@V?$_List_val@U?$_List_simple_types@UAVehHookImpEntry@PLH@@@std@@@std@@U_Iterator_base0@2@@2@_K@Z
	?deallocate@?$allocator@V?$_List_unchecked_iterator@V?$_List_val@U?$_List_simple_types@U?$pair@$$CB_KV?$shared_ptr@VFBAllocator@PLH@@@std@@@std@@@std@@@std@@@std@@@std@@QEAAXQEAV?$_List_unchecked_iterator@V?$_List_val@U?$_List_simple_types@U?$pair@$$CB_KV?$shared_ptr@VFBAllocator@PLH@@@std@@@std@@@std@@@std@@@2@_K@Z
	?deallocate@?$allocator@V?$_List_unchecked_iterator@V?$_List_val@U?$_List_simple_types@U?$pair@$$CB_KV?$vector@VInstruction@PLH@@V?$allocator@VInstruction@PLH@@@std@@@std@@@std@@@std@@@std@@@std@@@std@@QEAAXQEAV?$_List_unchecked_iterator@V?$_List_val@U?$_List_simple_types@U?$pair@$$CB_KV?$vector@VInstruction@PLH@@V?$allocator@VInstruction@PLH@@@std@@@std@@@std@@@std@@@std@@@2@_K@Z
	?deallocate@?$allocator@V?$basic_string@DU?$char_traits@D@std@@V?$allocator@D@2@@std@@@std@@QEAAXQEAV?$basic_string@DU?$char_traits@D@std@@V?$allocator@D@2@@2@_K@Z
	?deallocate@?$allocator@V?$shared_ptr@VFBAllocator@PLH@@@std@@@std@@QEAAXQEAV?$shared_ptr@VFBAllocator@PLH@@@2@_K@Z
	?deallocate@?$allocator@VEffect@@@std@@QEAAXQEAVEffect@@_K@Z
	?deallocate@?$allocator@VInstruction@PLH@@@std@@QEAAXQEAVInstruction@PLH@@_K@Z
	?deallocate@?$allocator@VReg@x86@_abi_1_10@asmjit@@@std@@QEAAXQEAVReg@x86@_abi_1_10@asmjit@@_K@Z
	?deallocate@?$allocator@W4OperandType@Instruction@PLH@@@std@@QEAAXQEAW4OperandType@Instruction@PLH@@_K@Z
	?deallocate@?$allocator@W4TypeId@_abi_1_10@asmjit@@@std@@QEAAXQEAW4TypeId@_abi_1_10@asmjit@@_K@Z
	?deallocate@?$allocator@_W@std@@QEAAXQEA_W_K@Z
	?deallocate@FBAllocator@PLH@@QEAAXPEAD@Z
	?deallocate@RangeAllocator@PLH@@QEAAX_K@Z
	?dec@std@@YAAEAVios_base@1@AEAV21@@Z
	?didExecute@Effect@@QEAA_NXZ
	?disassemble@ZydisDisassembler@PLH@@QEAA?AV?$vector@VInstruction@PLH@@V?$allocator@VInstruction@PLH@@@std@@@std@@_K00AEBVMemAccessor@2@@Z
	?empty@?$basic_string@DU?$char_traits@D@std@@V?$allocator@D@2@@std@@QEBA_NXZ
	?empty@?$basic_string@_WU?$char_traits@_W@std@@V?$allocator@_W@2@@std@@QEBA_NXZ
	?empty@?$vector@UError@PLH@@V?$allocator@UError@PLH@@@std@@@std@@QEBA_NXZ
	?empty@?$vector@VInstruction@PLH@@V?$allocator@VInstruction@PLH@@@std@@@std@@QEBA_NXZ
	?empty@?$vector@W4OperandType@Instruction@PLH@@V?$allocator@W4OperandType@Instruction@PLH@@@std@@@std@@QEBA_NXZ
	?end@?$_Hash@V?$_Umap_traits@_KV?$shared_ptr@VFBAllocator@PLH@@@std@@V?$_Uhash_compare@_KU?$hash@_K@std@@U?$equal_to@_K@2@@2@V?$allocator@U?$pair@$$CB_KV?$shared_ptr@VFBAllocator@PLH@@@std@@@std@@@2@$0A@@std@@@std@@QEAA?AV?$_List_iterator@V?$_List_val@U?$_List_simple_types@U?$pair@$$CB_KV?$shared_ptr@VFBAllocator@PLH@@@std@@@std@@@std@@@std@@@2@XZ
	?end@?$_Hash@V?$_Umap_traits@_KV?$vector@VInstruction@PLH@@V?$allocator@VInstruction@PLH@@@std@@@std@@V?$_Uhash_compare@_KU?$hash@_K@std@@U?$equal_to@_K@2@@2@V?$allocator@U?$pair@$$CB_KV?$vector@VInstruction@PLH@@V?$allocator@VInstruction@PLH@@@std@@@std@@@std@@@2@$0A@@std@@@std@@QEAA?AV?$_List_iterator@V?$_List_val@U?$_List_simple_types@U?$pair@$$CB_KV?$vector@VInstruction@PLH@@V?$allocator@VInstruction@PLH@@@std@@@std@@@std@@@std@@@std@@@2@XZ
	?end@?$_Hash@V?$_Umap_traits@_KV?$vector@VInstruction@PLH@@V?$allocator@VInstruction@PLH@@@std@@@std@@V?$_Uhash_compare@_KU?$hash@_K@std@@U?$equal_to@_K@2@@2@V?$allocator@U?$pair@$$CB_KV?$vector@VInstruction@PLH@@V?$allocator@VInstruction@PLH@@@std@@@std@@@std@@@2@$0A@@std@@@std@@QEBA?AV?$_List_const_iterator@V?$_List_val@U?$_List_simple_types@U?$pair@$$CB_KV?$vector@VInstruction@PLH@@V?$allocator@VInstruction@PLH@@@std@@@std@@@std@@@std@@@std@@@2@XZ
	?end@?$initializer_list@E@std@@QEBAPEBEXZ
	?end@?$initializer_list@U?$pair@$$CBV?$basic_string@DU?$char_traits@D@std@@V?$allocator@D@2@@std@@V12@@std@@@std@@QEBAPEBU?$pair@$$CBV?$basic_string@DU?$char_traits@D@std@@V?$allocator@D@2@@std@@V12@@2@XZ
	?end@?$initializer_list@U?$pair@$$CBW4ZydisRegisterClass_@@W4ZydisRegister_@@@std@@@std@@QEBAPEBU?$pair@$$CBW4ZydisRegisterClass_@@W4ZydisRegister_@@@2@XZ
	?end@?$initializer_list@U?$pair@$$CBW4ZydisRegister_@@W41@@std@@@std@@QEBAPEBU?$pair@$$CBW4ZydisRegister_@@W41@@2@XZ
	?end@?$initializer_list@V?$basic_string@DU?$char_traits@D@std@@V?$allocator@D@2@@std@@@std@@QEBAPEBV?$basic_string@DU?$char_traits@D@std@@V?$allocator@D@2@@2@XZ
	?end@?$initializer_list@VInstruction@PLH@@@std@@QEBAPEBVInstruction@PLH@@XZ
	?end@?$list@U?$pair@$$CB_KV?$shared_ptr@VFBAllocator@PLH@@@std@@@std@@V?$allocator@U?$pair@$$CB_KV?$shared_ptr@VFBAllocator@PLH@@@std@@@std@@@2@@std@@QEAA?AV?$_List_iterator@V?$_List_val@U?$_List_simple_types@U?$pair@$$CB_KV?$shared_ptr@VFBAllocator@PLH@@@std@@@std@@@std@@@std@@@2@XZ
	?end@?$list@U?$pair@$$CB_KV?$vector@VInstruction@PLH@@V?$allocator@VInstruction@PLH@@@std@@@std@@@std@@V?$allocator@U?$pair@$$CB_KV?$vector@VInstruction@PLH@@V?$allocator@VInstruction@PLH@@@std@@@std@@@std@@@2@@std@@QEAA?AV?$_List_iterator@V?$_List_val@U?$_List_simple_types@U?$pair@$$CB_KV?$vector@VInstruction@PLH@@V?$allocator@VInstruction@PLH@@@std@@@std@@@std@@@std@@@std@@@2@XZ
	?end@?$list@U?$pair@$$CB_KV?$vector@VInstruction@PLH@@V?$allocator@VInstruction@PLH@@@std@@@std@@@std@@V?$allocator@U?$pair@$$CB_KV?$vector@VInstruction@PLH@@V?$allocator@VInstruction@PLH@@@std@@@std@@@std@@@2@@std@@QEBA?AV?$_List_const_iterator@V?$_List_val@U?$_List_simple_types@U?$pair@$$CB_KV?$vector@VInstruction@PLH@@V?$allocator@VInstruction@PLH@@@std@@@std@@@std@@@std@@@std@@@2@XZ
	?end@?$vector@V?$basic_string@DU?$char_traits@D@std@@V?$allocator@D@2@@std@@V?$allocator@V?$basic_string@DU?$char_traits@D@std@@V?$allocator@D@2@@std@@@2@@std@@QEAA?AV?$_Vector_iterator@V?$_Vector_val@U?$_Simple_types@V?$basic_string@DU?$char_traits@D@std@@V?$allocator@D@2@@std@@@std@@@std@@@2@XZ
	?end@?$vector@V?$basic_string@DU?$char_traits@D@std@@V?$allocator@D@2@@std@@V?$allocator@V?$basic_string@DU?$char_traits@D@std@@V?$allocator@D@2@@std@@@2@@std@@QEBA?AV?$_Vector_const_iterator@V?$_Vector_val@U?$_Simple_types@V?$basic_string@DU?$char_traits@D@std@@V?$allocator@D@2@@std@@@std@@@std@@@2@XZ
	?end@?$vector@V?$shared_ptr@VFBAllocator@PLH@@@std@@V?$allocator@V?$shared_ptr@VFBAllocator@PLH@@@std@@@2@@std@@QEAA?AV?$_Vector_iterator@V?$_Vector_val@U?$_Simple_types@V?$shared_ptr@VFBAllocator@PLH@@@std@@@std@@@std@@@2@XZ
	?end@?$vector@VInstruction@PLH@@V?$allocator@VInstruction@PLH@@@std@@@std@@QEAA?AV?$_Vector_iterator@V?$_Vector_val@U?$_Simple_types@VInstruction@PLH@@@std@@@std@@@2@XZ
	?end@?$vector@VInstruction@PLH@@V?$allocator@VInstruction@PLH@@@std@@@std@@QEBA?AV?$_Vector_const_iterator@V?$_Vector_val@U?$_Simple_types@VInstruction@PLH@@@std@@@std@@@2@XZ
	?environment@Target@_abi_1_10@asmjit@@QEBAAEBVEnvironment@23@XZ
	?eof@?$_Narrow_char_traits@DH@std@@SAHXZ
	?eq@?$_Narrow_char_traits@DH@std@@SA_NDD@Z
	?eq_int_type@?$_Narrow_char_traits@DH@std@@SA_NHH@Z
	?erase@?$_Hash@V?$_Umap_traits@_KV?$shared_ptr@VFBAllocator@PLH@@@std@@V?$_Uhash_compare@_KU?$hash@_K@std@@U?$equal_to@_K@2@@2@V?$allocator@U?$pair@$$CB_KV?$shared_ptr@VFBAllocator@PLH@@@std@@@std@@@2@$0A@@std@@@std@@QEAA_KAEB_K@Z
	?erase@?$_Hash@V?$_Uset_traits@UAVehHookImpEntry@PLH@@V?$_Uhash_compare@UAVehHookImpEntry@PLH@@U?$hash@UAVehHookImpEntry@PLH@@@std@@U?$equal_to@UAVehHookImpEntry@PLH@@@4@@std@@V?$allocator@UAVehHookImpEntry@PLH@@@4@$0A@@std@@@std@@QEAA_KAEBUAVehHookImpEntry@PLH@@@Z
	?erase@?$basic_string@DU?$char_traits@D@std@@V?$allocator@D@2@@std@@QEAAAEAV12@_K0@Z
	?erase@?$vector@V?$shared_ptr@VFBAllocator@PLH@@@std@@V?$allocator@V?$shared_ptr@VFBAllocator@PLH@@@std@@@2@@std@@QEAA?AV?$_Vector_iterator@V?$_Vector_val@U?$_Simple_types@V?$shared_ptr@VFBAllocator@PLH@@@std@@@std@@@std@@@2@V?$_Vector_const_iterator@V?$_Vector_val@U?$_Simple_types@V?$shared_ptr@VFBAllocator@PLH@@@std@@@std@@@std@@@2@0@Z
	?expandProlSelfJmps@Detour@PLH@@IEAA_NAEAV?$vector@VInstruction@PLH@@V?$allocator@VInstruction@PLH@@@std@@@std@@AEBV34@AEA_K2@Z
	?find@?$_Narrow_char_traits@DH@std@@SAPEBDQEBD_KAEBD@Z
	?find@?$basic_string@DU?$char_traits@D@std@@V?$allocator@D@2@@std@@QEBA_KAEBV12@_K@Z
	?find@?$basic_string@DU?$char_traits@D@std@@V?$allocator@D@2@@std@@QEBA_KD_K@Z
	?find@?$basic_string@DU?$char_traits@D@std@@V?$allocator@D@2@@std@@QEBA_KQEBD_K@Z
	?findOrInsertAllocator@RangeAllocator@PLH@@AEAA?AV?$shared_ptr@VFBAllocator@PLH@@@std@@_K0@Z
	?findPattern@PLH@@YA_K_K_KPEBD@Z
	?findPattern_rev@PLH@@YA_K_K_KPEBD@Z
	?followJmp@Detour@PLH@@IEAA_NAEAV?$vector@VInstruction@PLH@@V?$allocator@VInstruction@PLH@@@std@@@std@@E@Z
	?frame@FuncNode@_abi_1_10@asmjit@@QEAAAEAVFuncFrame@23@XZ
	?fromMemBaseType@OperandSignature@_abi_1_10@asmjit@@SA?AU123@W4RegType@23@@Z
	?fromOpType@OperandSignature@_abi_1_10@asmjit@@SA?AU123@W4OperandType@23@@Z
	?fromPredicate@OperandSignature@_abi_1_10@asmjit@@SA?AU123@I@Z
	?fromSize@OperandSignature@_abi_1_10@asmjit@@SA?AU123@I@Z
	?front@?$vector@VInstruction@PLH@@V?$allocator@VInstruction@PLH@@@std@@@std@@QEAAAEAVInstruction@PLH@@XZ
	?front@?$vector@W4OperandType@Instruction@PLH@@V?$allocator@W4OperandType@Instruction@PLH@@@std@@@std@@QEBAAEBW4OperandType@Instruction@PLH@@XZ
	?func@BaseCompiler@_abi_1_10@asmjit@@QEBAPEAVFuncNode@23@XZ
	?generateAbsoluteJump@PLH@@YA?AV?$vector@V?$basic_string@DU?$char_traits@D@std@@V?$allocator@D@2@@std@@V?$allocator@V?$basic_string@DU?$char_traits@D@std@@V?$allocator@D@2@@std@@@2@@std@@_KG@Z
	?generateTranslationRoutine@x64Detour@PLH@@IEAA?AV?$optional@_K@std@@AEBVInstruction@2@_K@Z
	?get@?$_Ptr_base@VFBAllocator@PLH@@@std@@IEBAPEAVFBAllocator@PLH@@XZ
	?get@?$_Ptr_base@VLogger@PLH@@@std@@IEBAPEAVLogger@PLH@@XZ
	?get@?$unique_ptr@$$BY0A@_KU?$default_delete@$$BY0A@_K@std@@@std@@QEBAPEA_KXZ
	?getAbsoluteDestination@Instruction@PLH@@QEBA_KXZ
	?getAddress@Instruction@PLH@@QEBA_KXZ
	?getAllocationAlignment@PLH@@YA_KXZ
	?getArchType@x64Detour@PLH@@UEBA?AW4Mode@2@XZ
	?getArchType@x86Detour@PLH@@UEBA?AW4Mode@2@XZ
	?getBranchMap@ZydisDisassembler@PLH@@QEBAAEBV?$unordered_map@_KV?$vector@VInstruction@PLH@@V?$allocator@VInstruction@PLH@@@std@@@std@@U?$hash@_K@2@U?$equal_to@_K@2@V?$allocator@U?$pair@$$CB_KV?$vector@VInstruction@PLH@@V?$allocator@VInstruction@PLH@@@std@@@std@@@std@@@2@@std@@XZ
	?getBytes@Instruction@PLH@@QEBAAEBV?$vector@EV?$allocator@E@std@@@std@@XZ
	?getCallConv@ILCallback@PLH@@AEAA?AW4CallConvId@_abi_1_10@asmjit@@AEBV?$basic_string@DU?$char_traits@D@std@@V?$allocator@D@2@@std@@@Z
	?getDestination@Instruction@PLH@@QEBA_KXZ
	?getDetourScheme@x64Detour@PLH@@QEBA?AW4detour_scheme_t@12@XZ
	?getDispSize@Instruction@PLH@@QEBA_KXZ
	?getDisplacementOffset@Instruction@PLH@@QEBAEXZ
	?getFullName@Instruction@PLH@@QEBA?AV?$basic_string@DU?$char_traits@D@std@@V?$allocator@D@2@@std@@XZ
	?getImmediate@Instruction@PLH@@QEBA_KXZ
	?getImmediateSize@Instruction@PLH@@QEBAEXZ
	?getJitFunc@ILCallback@PLH@@QEAA_KAEBUFuncSignature@_abi_1_10@asmjit@@W4Arch@45@Q6AXPEBUParameters@12@EPEBUReturnValue@12@@Z@Z
	?getJitFunc@ILCallback@PLH@@QEAA_KAEBV?$basic_string@DU?$char_traits@D@std@@V?$allocator@D@2@@std@@AEBV?$vector@V?$basic_string@DU?$char_traits@D@std@@V?$allocator@D@2@@std@@V?$allocator@V?$basic_string@DU?$char_traits@D@std@@V?$allocator@D@2@@std@@@2@@4@W4Arch@_abi_1_10@asmjit@@Q6AXPEBUParameters@12@EPEBUReturnValue@12@@ZV34@@Z
	?getJmpSize@PLH@@YAEXZ
	?getMaxDepth@Detour@PLH@@QEBAEXZ
	?getMinJmpSize@x64Detour@PLH@@SAEXZ
	?getMnemonic@Instruction@PLH@@QEBA?AV?$basic_string@DU?$char_traits@D@std@@V?$allocator@D@2@@std@@XZ
	?getOpStr@ZydisDisassembler@PLH@@IEAA_NPEAUZydisDecodedInstruction_@@PEBUZydisDecodedOperand_@@_KPEAV?$basic_string@DU?$char_traits@D@std@@V?$allocator@D@2@@std@@@Z
	?getOperandTypes@Instruction@PLH@@QEBAAEBV?$vector@W4OperandType@Instruction@PLH@@V?$allocator@W4OperandType@Instruction@PLH@@@std@@@std@@XZ
	?getPageSize@PLH@@YA_KXZ
	?getPatternSize@PLH@@YA_KPEBD@Z
	?getRegister@Instruction@PLH@@QEBA?AW4ZydisRegister_@@XZ
	?getRelativeDestination@Instruction@PLH@@QEBA_KXZ
	?getTrampolineHolder@ILCallback@PLH@@QEAAPEA_KXZ
	?getType@AVehHook@PLH@@UEBA?AW4HookType@2@XZ
	?getType@Detour@PLH@@UEBA?AW4HookType@2@XZ
	?getType@EatHook@PLH@@UEBA?AW4HookType@2@XZ
	?getType@IatHook@PLH@@UEBA?AW4HookType@2@XZ
	?getType@VFuncSwapHook@PLH@@UEBA?AW4HookType@2@XZ
	?getType@VTableSwapHook@PLH@@UEBA?AW4HookType@2@XZ
	?getTypeId@ILCallback@PLH@@AEAA?AW4TypeId@_abi_1_10@asmjit@@AEBV?$basic_string@DU?$char_traits@D@std@@V?$allocator@D@2@@std@@@Z
	?getUID@Instruction@PLH@@QEBAJXZ
	?group@BaseReg@_abi_1_10@asmjit@@QEBA?AW4RegGroup@23@XZ
	?hasDisplacement@Instruction@PLH@@QEBA_NXZ
	?hasImmediate@Instruction@PLH@@QEBA_NXZ
	?hasRegister@Instruction@PLH@@QEBA_NXZ
	?hasRet@FuncSignature@_abi_1_10@asmjit@@QEBA_NXZ
	?hasUnresolvedLinks@CodeHolder@_abi_1_10@asmjit@@QEBA_NXZ
	?hex@std@@YAAEAVios_base@1@AEAV21@@Z
	?hook@BreakPointHook@PLH@@UEAA_NXZ
	?hook@EatHook@PLH@@UEAA_NXZ
	?hook@HWBreakPointHook@PLH@@UEAA_NXZ
	?hook@IatHook@PLH@@UEAA_NXZ
	?hook@VFuncSwapHook@PLH@@UEAA_NXZ
	?hook@VTableSwapHook@PLH@@UEAA_NXZ
	?hook@x64Detour@PLH@@UEAA_NXZ
	?hook@x86Detour@PLH@@UEAA_NXZ
	?host@Environment@_abi_1_10@asmjit@@SA?AV123@XZ
	?id@Operand_@_abi_1_10@asmjit@@QEBAIXZ
	?inRange@FBAllocator@PLH@@QEAA_N_K@Z
	?init@Environment@_abi_1_10@asmjit@@QEAAXW4Arch@23@W4SubArch@23@W4Vendor@23@W4Platform@23@W4PlatformABI@23@W4ObjectFormat@23@@Z
	?init@FuncSignature@_abi_1_10@asmjit@@QEAAXW4CallConvId@23@IW4TypeId@23@PEBW4523@I@Z
	?init@RegOnly@_abi_1_10@asmjit@@QEAAXAEBUOperandSignature@23@I@Z
	?init@RegOnly@_abi_1_10@asmjit@@QEAAXAEBVBaseReg@23@@Z
	?initialize@FBAllocator@PLH@@QEAA_NXZ
	?insert@?$_Hash@V?$_Uset_traits@UAVehHookImpEntry@PLH@@V?$_Uhash_compare@UAVehHookImpEntry@PLH@@U?$hash@UAVehHookImpEntry@PLH@@@std@@U?$equal_to@UAVehHookImpEntry@PLH@@@4@@std@@V?$allocator@UAVehHookImpEntry@PLH@@@4@$0A@@std@@@std@@QEAA?AU?$pair@V?$_List_const_iterator@V?$_List_val@U?$_List_simple_types@UAVehHookImpEntry@PLH@@@std@@@std@@@std@@_N@2@AEBUAVehHookImpEntry@PLH@@@Z
	?insert@?$_Tree@V?$_Tmap_traits@V?$basic_string@DU?$char_traits@D@std@@V?$allocator@D@2@@std@@V12@U?$less@V?$basic_string@DU?$char_traits@D@std@@V?$allocator@D@2@@std@@@2@V?$allocator@U?$pair@$$CBV?$basic_string@DU?$char_traits@D@std@@V?$allocator@D@2@@std@@V12@@std@@@2@$0A@@std@@@std@@QEAAXV?$initializer_list@U?$pair@$$CBV?$basic_string@DU?$char_traits@D@std@@V?$allocator@D@2@@std@@V12@@std@@@2@@Z
	?insert@?$_Tree@V?$_Tmap_traits@W4ZydisRegisterClass_@@W4ZydisRegister_@@U?$less@W4ZydisRegisterClass_@@@std@@V?$allocator@U?$pair@$$CBW4ZydisRegisterClass_@@W4ZydisRegister_@@@std@@@4@$0A@@std@@@std@@QEAAXV?$initializer_list@U?$pair@$$CBW4ZydisRegisterClass_@@W4ZydisRegister_@@@std@@@2@@Z
	?insert@?$_Tree@V?$_Tmap_traits@W4ZydisRegister_@@W41@U?$less@W4ZydisRegister_@@@std@@V?$allocator@U?$pair@$$CBW4ZydisRegister_@@W41@@std@@@3@$0A@@std@@@std@@QEAAXV?$initializer_list@U?$pair@$$CBW4ZydisRegister_@@W41@@std@@@2@@Z
	?insert@?$_Tree@V?$_Tset_traits@V?$basic_string@DU?$char_traits@D@std@@V?$allocator@D@2@@std@@U?$less@V?$basic_string@DU?$char_traits@D@std@@V?$allocator@D@2@@std@@@2@V?$allocator@V?$basic_string@DU?$char_traits@D@std@@V?$allocator@D@2@@std@@@2@$0A@@std@@@std@@QEAAXV?$initializer_list@V?$basic_string@DU?$char_traits@D@std@@V?$allocator@D@2@@std@@@2@@Z
	?insert@?$basic_string@DU?$char_traits@D@std@@V?$allocator@D@2@@std@@QEAAAEAV12@_KQEBD0@Z
	?insert@?$basic_string@DU?$char_traits@D@std@@V?$allocator@D@2@@std@@QEAAAEAV12@_KQEBD@Z
	?insert@?$vector@VInstruction@PLH@@V?$allocator@VInstruction@PLH@@@std@@@std@@QEAA?AV?$_Vector_iterator@V?$_Vector_val@U?$_Simple_types@VInstruction@PLH@@@std@@@std@@@2@V?$_Vector_const_iterator@V?$_Vector_val@U?$_Simple_types@VInstruction@PLH@@@std@@@std@@@2@AEBVInstruction@PLH@@@Z
	?intersectionLoadFactor@FBAllocator@PLH@@QEAAE_K0@Z
	?intersectsRange@FBAllocator@PLH@@QEAA_N_K0@Z
	?invoke@Compiler@x86@_abi_1_10@asmjit@@QEAAIPEAPEAVInvokeNode@34@AEBVGp@234@AEBUFuncSignature@34@@Z
	?invoke@Compiler@x86@_abi_1_10@asmjit@@QEAAIPEAPEAVInvokeNode@34@_KAEBUFuncSignature@34@@Z
	?invoke_@Compiler@x86@_abi_1_10@asmjit@@QEAAIPEAPEAVInvokeNode@34@AEBUOperand_@34@AEBUFuncSignature@34@@Z
	?isBranching@Instruction@PLH@@QEBA_NXZ
	?isCalling@Instruction@PLH@@QEBA_NXZ
	?isDisplacementRelative@Instruction@PLH@@QEBA_NXZ
	?isFuncEnd@ZydisDisassembler@PLH@@SA_NAEBVInstruction@2@_N@Z
	?isGeneralReg@ILCallback@PLH@@AEBA_NW4TypeId@_abi_1_10@asmjit@@@Z
	?isHooked@IHook@PLH@@UEAA_NXZ
	?isIndirect@Instruction@PLH@@QEBA_NXZ
	?isLargeOrExternal@String@_abi_1_10@asmjit@@QEBA_NXZ
	?isMatch@PLH@@YA_NPEBD00@Z
	?isPadBytes@ZydisDisassembler@PLH@@SA_NAEBVInstruction@2@@Z
	?isStackGood@StackCanary@PLH@@QEAA_NXZ
	?isXmmReg@ILCallback@PLH@@AEBA_NW4TypeId@_abi_1_10@asmjit@@@Z
	?is_absolute@path@filesystem@std@@QEBA_NXZ
	?key_comp@?$_Tree@V?$_Tmap_traits@G_KU?$less@G@std@@V?$allocator@U?$pair@$$CBG_K@std@@@2@$0A@@std@@@std@@QEBA?AU?$less@G@2@XZ
	?lea@?$EmitterExplicitT@VAssembler@x86@_abi_1_10@asmjit@@@x86@_abi_1_10@asmjit@@QEAAIAEBVGp@234@AEBVMem@234@@Z
	?lea@?$EmitterExplicitT@VCompiler@x86@_abi_1_10@asmjit@@@x86@_abi_1_10@asmjit@@QEAAIAEBVGp@234@AEBVMem@234@@Z
	?left@std@@YAAEAVios_base@1@AEAV21@@Z
	?length@?$_Narrow_char_traits@DH@std@@SA_KQEBD@Z
	?length@?$_WChar_traits@_W@std@@SA_KPEB_W@Z
	?length@?$basic_string@_WU?$char_traits@_W@std@@V?$allocator@_W@2@@std@@QEBA_KXZ
	?length@?$basic_string_view@_WUci_wchar_traits@PLH@@@std@@QEBA_KXZ
	?load@?$_Atomic_storage@J$03@std@@QEBAJW4memory_order@2@@Z
	?lock@_Mutex_base@std@@QEAAXXZ
	?log@ErrorLog@PLH@@UEAAXAEBV?$basic_string@DU?$char_traits@D@std@@V?$allocator@D@2@@std@@W4ErrorLevel@2@@Z
	?log@Log@PLH@@SAXV?$basic_string@DU?$char_traits@D@std@@V?$allocator@D@2@@std@@W4ErrorLevel@2@@Z
	?makeAgnosticJmp@PLH@@YA?AV?$vector@VInstruction@PLH@@V?$allocator@VInstruction@PLH@@@std@@@std@@_K0@Z
	?makeRelJmpWithAbsDest@PLH@@YA?AVInstruction@1@_K0@Z
	?makeTrampoline@x64Detour@PLH@@IEAA_NAEAV?$vector@VInstruction@PLH@@V?$allocator@VInstruction@PLH@@@std@@@std@@0@Z
	?makeTrampoline@x86Detour@PLH@@IEAA_NAEAV?$vector@VInstruction@PLH@@V?$allocator@VInstruction@PLH@@@std@@@std@@0@Z
	?make_inplace_trampoline@x64Detour@PLH@@IEAA_N_KAEBV?$function@$$A6AXAEAVAssembler@x86@_abi_1_10@asmjit@@@Z@std@@@Z
	?make_nops@Detour@PLH@@IEBA?AV?$vector@VInstruction@PLH@@V?$allocator@VInstruction@PLH@@@std@@@std@@_KG@Z
	?makex64DestHolder@PLH@@YA?AV?$vector@VInstruction@PLH@@V?$allocator@VInstruction@PLH@@@std@@@std@@_K0@Z
	?makex64MinimumJump@PLH@@YA?AV?$vector@VInstruction@PLH@@V?$allocator@VInstruction@PLH@@@std@@@std@@_K00@Z
	?makex64PreferredJump@PLH@@YA?AV?$vector@VInstruction@PLH@@V?$allocator@VInstruction@PLH@@@std@@@std@@_K0@Z
	?makex86Jmp@PLH@@YA?AV?$vector@VInstruction@PLH@@V?$allocator@VInstruction@PLH@@@std@@@std@@_K0@Z
	?max@?$numeric_limits@I@std@@SAIXZ
	?max@?$numeric_limits@_J@std@@SA_JXZ
	?max_load_factor@?$_Hash@V?$_Umap_traits@_KV?$shared_ptr@VFBAllocator@PLH@@@std@@V?$_Uhash_compare@_KU?$hash@_K@std@@U?$equal_to@_K@2@@2@V?$allocator@U?$pair@$$CB_KV?$shared_ptr@VFBAllocator@PLH@@@std@@@std@@@2@$0A@@std@@@std@@QEBAMXZ
	?max_load_factor@?$_Hash@V?$_Umap_traits@_KV?$vector@VInstruction@PLH@@V?$allocator@VInstruction@PLH@@@std@@@std@@V?$_Uhash_compare@_KU?$hash@_K@std@@U?$equal_to@_K@2@@2@V?$allocator@U?$pair@$$CB_KV?$vector@VInstruction@PLH@@V?$allocator@VInstruction@PLH@@@std@@@std@@@std@@@2@$0A@@std@@@std@@QEBAMXZ
	?max_load_factor@?$_Hash@V?$_Uset_traits@UAVehHookImpEntry@PLH@@V?$_Uhash_compare@UAVehHookImpEntry@PLH@@U?$hash@UAVehHookImpEntry@PLH@@@std@@U?$equal_to@UAVehHookImpEntry@PLH@@@4@@std@@V?$allocator@UAVehHookImpEntry@PLH@@@4@$0A@@std@@@std@@QEBAMXZ
	?max_size@?$_Default_allocator_traits@V?$allocator@D@std@@@std@@SA_KAEBV?$allocator@D@2@@Z
	?max_size@?$_Default_allocator_traits@V?$allocator@E@std@@@std@@SA_KAEBV?$allocator@E@2@@Z
	?max_size@?$_Default_allocator_traits@V?$allocator@U?$_List_node@U?$pair@$$CB_KV?$shared_ptr@VFBAllocator@PLH@@@std@@@std@@PEAX@std@@@std@@@std@@SA_KAEBV?$allocator@U?$_List_node@U?$pair@$$CB_KV?$shared_ptr@VFBAllocator@PLH@@@std@@@std@@PEAX@std@@@2@@Z
	?max_size@?$_Default_allocator_traits@V?$allocator@U?$_List_node@U?$pair@$$CB_KV?$vector@VInstruction@PLH@@V?$allocator@VInstruction@PLH@@@std@@@std@@@std@@PEAX@std@@@std@@@std@@SA_KAEBV?$allocator@U?$_List_node@U?$pair@$$CB_KV?$vector@VInstruction@PLH@@V?$allocator@VInstruction@PLH@@@std@@@std@@@std@@PEAX@std@@@2@@Z
	?max_size@?$_Default_allocator_traits@V?$allocator@U?$_List_node@UAVehHookImpEntry@PLH@@PEAX@std@@@std@@@std@@SA_KAEBV?$allocator@U?$_List_node@UAVehHookImpEntry@PLH@@PEAX@std@@@2@@Z
	?max_size@?$_Default_allocator_traits@V?$allocator@U?$_Tree_node@U?$pair@$$CBG_K@std@@PEAX@std@@@std@@@std@@SA_KAEBV?$allocator@U?$_Tree_node@U?$pair@$$CBG_K@std@@PEAX@std@@@2@@Z
	?max_size@?$_Default_allocator_traits@V?$allocator@U?$_Tree_node@U?$pair@$$CBV?$basic_string@DU?$char_traits@D@std@@V?$allocator@D@2@@std@@V12@@std@@PEAX@std@@@std@@@std@@SA_KAEBV?$allocator@U?$_Tree_node@U?$pair@$$CBV?$basic_string@DU?$char_traits@D@std@@V?$allocator@D@2@@std@@V12@@std@@PEAX@std@@@2@@Z
	?max_size@?$_Default_allocator_traits@V?$allocator@U?$_Tree_node@U?$pair@$$CBW4ZydisRegisterClass_@@W4ZydisRegister_@@@std@@PEAX@std@@@std@@@std@@SA_KAEBV?$allocator@U?$_Tree_node@U?$pair@$$CBW4ZydisRegisterClass_@@W4ZydisRegister_@@@std@@PEAX@std@@@2@@Z
	?max_size@?$_Default_allocator_traits@V?$allocator@U?$_Tree_node@U?$pair@$$CBW4ZydisRegister_@@W41@@std@@PEAX@std@@@std@@@std@@SA_KAEBV?$allocator@U?$_Tree_node@U?$pair@$$CBW4ZydisRegister_@@W41@@std@@PEAX@std@@@2@@Z
	?max_size@?$_Default_allocator_traits@V?$allocator@U?$_Tree_node@V?$basic_string@DU?$char_traits@D@std@@V?$allocator@D@2@@std@@PEAX@std@@@std@@@std@@SA_KAEBV?$allocator@U?$_Tree_node@V?$basic_string@DU?$char_traits@D@std@@V?$allocator@D@2@@std@@PEAX@std@@@2@@Z
	?max_size@?$_Default_allocator_traits@V?$allocator@UError@PLH@@@std@@@std@@SA_KAEBV?$allocator@UError@PLH@@@2@@Z
	?max_size@?$_Default_allocator_traits@V?$allocator@V?$_List_unchecked_const_iterator@V?$_List_val@U?$_List_simple_types@UAVehHookImpEntry@PLH@@@std@@@std@@U_Iterator_base0@2@@std@@@std@@@std@@SA_KAEBV?$allocator@V?$_List_unchecked_const_iterator@V?$_List_val@U?$_List_simple_types@UAVehHookImpEntry@PLH@@@std@@@std@@U_Iterator_base0@2@@std@@@2@@Z
	?max_size@?$_Default_allocator_traits@V?$allocator@V?$_List_unchecked_iterator@V?$_List_val@U?$_List_simple_types@U?$pair@$$CB_KV?$shared_ptr@VFBAllocator@PLH@@@std@@@std@@@std@@@std@@@std@@@std@@@std@@SA_KAEBV?$allocator@V?$_List_unchecked_iterator@V?$_List_val@U?$_List_simple_types@U?$pair@$$CB_KV?$shared_ptr@VFBAllocator@PLH@@@std@@@std@@@std@@@std@@@std@@@2@@Z
	?max_size@?$_Default_allocator_traits@V?$allocator@V?$_List_unchecked_iterator@V?$_List_val@U?$_List_simple_types@U?$pair@$$CB_KV?$vector@VInstruction@PLH@@V?$allocator@VInstruction@PLH@@@std@@@std@@@std@@@std@@@std@@@std@@@std@@@std@@SA_KAEBV?$allocator@V?$_List_unchecked_iterator@V?$_List_val@U?$_List_simple_types@U?$pair@$$CB_KV?$vector@VInstruction@PLH@@V?$allocator@VInstruction@PLH@@@std@@@std@@@std@@@std@@@std@@@std@@@2@@Z
	?max_size@?$_Default_allocator_traits@V?$allocator@V?$basic_string@DU?$char_traits@D@std@@V?$allocator@D@2@@std@@@std@@@std@@SA_KAEBV?$allocator@V?$basic_string@DU?$char_traits@D@std@@V?$allocator@D@2@@std@@@2@@Z
	?max_size@?$_Default_allocator_traits@V?$allocator@V?$shared_ptr@VFBAllocator@PLH@@@std@@@std@@@std@@SA_KAEBV?$allocator@V?$shared_ptr@VFBAllocator@PLH@@@std@@@2@@Z
	?max_size@?$_Default_allocator_traits@V?$allocator@VEffect@@@std@@@std@@SA_KAEBV?$allocator@VEffect@@@2@@Z
	?max_size@?$_Default_allocator_traits@V?$allocator@VInstruction@PLH@@@std@@@std@@SA_KAEBV?$allocator@VInstruction@PLH@@@2@@Z
	?max_size@?$_Default_allocator_traits@V?$allocator@VReg@x86@_abi_1_10@asmjit@@@std@@@std@@SA_KAEBV?$allocator@VReg@x86@_abi_1_10@asmjit@@@2@@Z
	?max_size@?$_Default_allocator_traits@V?$allocator@W4OperandType@Instruction@PLH@@@std@@@std@@SA_KAEBV?$allocator@W4OperandType@Instruction@PLH@@@2@@Z
	?max_size@?$_Default_allocator_traits@V?$allocator@W4TypeId@_abi_1_10@asmjit@@@std@@@std@@SA_KAEBV?$allocator@W4TypeId@_abi_1_10@asmjit@@@2@@Z
	?max_size@?$_Default_allocator_traits@V?$allocator@_W@std@@@std@@SA_KAEBV?$allocator@_W@2@@Z
	?max_size@?$_Hash_vec@V?$allocator@V?$_List_unchecked_const_iterator@V?$_List_val@U?$_List_simple_types@UAVehHookImpEntry@PLH@@@std@@@std@@U_Iterator_base0@2@@std@@@std@@@std@@QEBA_KXZ
	?max_size@?$_Hash_vec@V?$allocator@V?$_List_unchecked_iterator@V?$_List_val@U?$_List_simple_types@U?$pair@$$CB_KV?$shared_ptr@VFBAllocator@PLH@@@std@@@std@@@std@@@std@@@std@@@std@@@std@@QEBA_KXZ
	?max_size@?$_Hash_vec@V?$allocator@V?$_List_unchecked_iterator@V?$_List_val@U?$_List_simple_types@U?$pair@$$CB_KV?$vector@VInstruction@PLH@@V?$allocator@VInstruction@PLH@@@std@@@std@@@std@@@std@@@std@@@std@@@std@@@std@@QEBA_KXZ
	?max_size@?$_Tree@V?$_Tmap_traits@G_KU?$less@G@std@@V?$allocator@U?$pair@$$CBG_K@std@@@2@$0A@@std@@@std@@QEBA_KXZ
	?max_size@?$_Tree@V?$_Tmap_traits@V?$basic_string@DU?$char_traits@D@std@@V?$allocator@D@2@@std@@V12@U?$less@V?$basic_string@DU?$char_traits@D@std@@V?$allocator@D@2@@std@@@2@V?$allocator@U?$pair@$$CBV?$basic_string@DU?$char_traits@D@std@@V?$allocator@D@2@@std@@V12@@std@@@2@$0A@@std@@@std@@QEBA_KXZ
	?max_size@?$_Tree@V?$_Tmap_traits@W4ZydisRegisterClass_@@W4ZydisRegister_@@U?$less@W4ZydisRegisterClass_@@@std@@V?$allocator@U?$pair@$$CBW4ZydisRegisterClass_@@W4ZydisRegister_@@@std@@@4@$0A@@std@@@std@@QEBA_KXZ
	?max_size@?$_Tree@V?$_Tmap_traits@W4ZydisRegister_@@W41@U?$less@W4ZydisRegister_@@@std@@V?$allocator@U?$pair@$$CBW4ZydisRegister_@@W41@@std@@@3@$0A@@std@@@std@@QEBA_KXZ
	?max_size@?$_Tree@V?$_Tset_traits@V?$basic_string@DU?$char_traits@D@std@@V?$allocator@D@2@@std@@U?$less@V?$basic_string@DU?$char_traits@D@std@@V?$allocator@D@2@@std@@@2@V?$allocator@V?$basic_string@DU?$char_traits@D@std@@V?$allocator@D@2@@std@@@2@$0A@@std@@@std@@QEBA_KXZ
	?max_size@?$basic_string@DU?$char_traits@D@std@@V?$allocator@D@2@@std@@QEBA_KXZ
	?max_size@?$basic_string@_WU?$char_traits@_W@std@@V?$allocator@_W@2@@std@@QEBA_KXZ
	?max_size@?$list@U?$pair@$$CB_KV?$shared_ptr@VFBAllocator@PLH@@@std@@@std@@V?$allocator@U?$pair@$$CB_KV?$shared_ptr@VFBAllocator@PLH@@@std@@@std@@@2@@std@@QEBA_KXZ
	?max_size@?$list@U?$pair@$$CB_KV?$vector@VInstruction@PLH@@V?$allocator@VInstruction@PLH@@@std@@@std@@@std@@V?$allocator@U?$pair@$$CB_KV?$vector@VInstruction@PLH@@V?$allocator@VInstruction@PLH@@@std@@@std@@@std@@@2@@std@@QEBA_KXZ
	?max_size@?$list@UAVehHookImpEntry@PLH@@V?$allocator@UAVehHookImpEntry@PLH@@@std@@@std@@QEBA_KXZ
	?max_size@?$vector@EV?$allocator@E@std@@@std@@QEBA_KXZ
	?max_size@?$vector@UError@PLH@@V?$allocator@UError@PLH@@@std@@@std@@QEBA_KXZ
	?max_size@?$vector@V?$basic_string@DU?$char_traits@D@std@@V?$allocator@D@2@@std@@V?$allocator@V?$basic_string@DU?$char_traits@D@std@@V?$allocator@D@2@@std@@@2@@std@@QEBA_KXZ
	?max_size@?$vector@V?$shared_ptr@VFBAllocator@PLH@@@std@@V?$allocator@V?$shared_ptr@VFBAllocator@PLH@@@std@@@2@@std@@QEBA_KXZ
	?max_size@?$vector@VEffect@@V?$allocator@VEffect@@@std@@@std@@QEBA_KXZ
	?max_size@?$vector@VInstruction@PLH@@V?$allocator@VInstruction@PLH@@@std@@@std@@QEBA_KXZ
	?max_size@?$vector@VReg@x86@_abi_1_10@asmjit@@V?$allocator@VReg@x86@_abi_1_10@asmjit@@@std@@@std@@QEBA_KXZ
	?max_size@?$vector@W4OperandType@Instruction@PLH@@V?$allocator@W4OperandType@Instruction@PLH@@@std@@@std@@QEBA_KXZ
	?max_size@?$vector@W4TypeId@_abi_1_10@asmjit@@V?$allocator@W4TypeId@_abi_1_10@asmjit@@@std@@@std@@QEBA_KXZ
	?mem_copy@MemAccessor@PLH@@UEBA_N_K00@Z
	?mem_protect@MemAccessor@PLH@@UEBA?AW4ProtFlag@2@_K0W432@AEA_N@Z
	?mov@?$EmitterExplicitT@VAssembler@x86@_abi_1_10@asmjit@@@x86@_abi_1_10@asmjit@@QEAAIAEBVGp@234@AEBVImm@34@@Z
	?mov@?$EmitterExplicitT@VCompiler@x86@_abi_1_10@asmjit@@@x86@_abi_1_10@asmjit@@QEAAIAEBVGp@234@AEBVImm@34@@Z
	?mov@?$EmitterExplicitT@VCompiler@x86@_abi_1_10@asmjit@@@x86@_abi_1_10@asmjit@@QEAAIAEBVGp@234@AEBVMem@234@@Z
	?mov@?$EmitterExplicitT@VCompiler@x86@_abi_1_10@asmjit@@@x86@_abi_1_10@asmjit@@QEAAIAEBVMem@234@AEBVGp@234@@Z
	?move@?$_Char_traits@DH@std@@SAPEADQEADQEBD_K@Z
	?movq@?$EmitterExplicitT@VCompiler@x86@_abi_1_10@asmjit@@@x86@_abi_1_10@asmjit@@QEAAIAEBVMem@234@AEBVXmm@234@@Z
	?movq@?$EmitterExplicitT@VCompiler@x86@_abi_1_10@asmjit@@@x86@_abi_1_10@asmjit@@QEAAIAEBVXmm@234@AEBVMem@234@@Z
	?my_narrow_stricmp@PLH@@YAHPEBD0@Z
	?my_wide_stricmp@PLH@@YAHPEB_W0@Z
	?newStack@Compiler@x86@_abi_1_10@asmjit@@QEAA?AVMem@234@IIPEBD@Z
	?newUInt8@Compiler@x86@_abi_1_10@asmjit@@QEAA?AVGp@234@XZ
	?newUIntPtr@Compiler@x86@_abi_1_10@asmjit@@QEAA?AVGp@234@XZ
	?newXmm@Compiler@x86@_abi_1_10@asmjit@@QEAA?AVXmm@234@XZ
	?not_eof@?$_Narrow_char_traits@DH@std@@SAHH@Z
	?overflow@?$basic_stringbuf@DU?$char_traits@D@std@@V?$allocator@D@2@@std@@MEAAHH@Z
	?pbackfail@?$basic_stringbuf@DU?$char_traits@D@std@@V?$allocator@D@2@@std@@MEAAHH@Z
	?pointer_to@?$pointer_traits@PEAD@std@@SAPEADAEAD@Z
	?pointer_to@?$pointer_traits@PEAU?$pair@$$CB_KV?$shared_ptr@VFBAllocator@PLH@@@std@@@std@@@std@@SAPEAU?$pair@$$CB_KV?$shared_ptr@VFBAllocator@PLH@@@std@@@2@AEAU32@@Z
	?pointer_to@?$pointer_traits@PEAU?$pair@$$CB_KV?$vector@VInstruction@PLH@@V?$allocator@VInstruction@PLH@@@std@@@std@@@std@@@std@@SAPEAU?$pair@$$CB_KV?$vector@VInstruction@PLH@@V?$allocator@VInstruction@PLH@@@std@@@std@@@2@AEAU32@@Z
	?pop@ErrorLog@PLH@@QEAA?AUError@2@XZ
	?pop_back@?$vector@UError@PLH@@V?$allocator@UError@PLH@@@std@@@std@@QEAAXXZ
	?pop_back@?$vector@VEffect@@V?$allocator@VEffect@@@std@@@std@@QEAAXXZ
	?printDetourScheme@x64Detour@PLH@@SAPEBDW4detour_scheme_t@12@@Z
	?push@?$EmitterExplicitT@VAssembler@x86@_abi_1_10@asmjit@@@x86@_abi_1_10@asmjit@@QEAAIAEBVGp@234@@Z
	?push@ErrorLog@PLH@@QEAAXAEBUError@2@@Z
	?push_back@?$vector@UError@PLH@@V?$allocator@UError@PLH@@@std@@@std@@QEAAXAEBUError@PLH@@@Z
	?push_back@?$vector@V?$shared_ptr@VFBAllocator@PLH@@@std@@V?$allocator@V?$shared_ptr@VFBAllocator@PLH@@@std@@@2@@std@@QEAAXAEBV?$shared_ptr@VFBAllocator@PLH@@@2@@Z
	?push_back@?$vector@VEffect@@V?$allocator@VEffect@@@std@@@std@@QEAAX$$QEAVEffect@@@Z
	?push_back@?$vector@VInstruction@PLH@@V?$allocator@VInstruction@PLH@@@std@@@std@@QEAAXAEBVInstruction@PLH@@@Z
	?push_back@?$vector@VReg@x86@_abi_1_10@asmjit@@V?$allocator@VReg@x86@_abi_1_10@asmjit@@@std@@@std@@QEAAXAEBVReg@x86@_abi_1_10@asmjit@@@Z
	?push_back@?$vector@W4TypeId@_abi_1_10@asmjit@@V?$allocator@W4TypeId@_abi_1_10@asmjit@@@std@@@std@@QEAAX$$QEAW4TypeId@_abi_1_10@asmjit@@@Z
	?rbegin@?$vector@VInstruction@PLH@@V?$allocator@VInstruction@PLH@@@std@@@std@@QEAA?AV?$reverse_iterator@V?$_Vector_iterator@V?$_Vector_val@U?$_Simple_types@VInstruction@PLH@@@std@@@std@@@std@@@2@XZ
	?reHook@Detour@PLH@@UEAA_NXZ
	?reHook@IHook@PLH@@UEAA_NXZ
	?regGroup@OperandSignature@_abi_1_10@asmjit@@QEBA?AW4RegGroup@23@XZ
	?regType@OperandSignature@_abi_1_10@asmjit@@QEBA?AW4RegType@23@XZ
	?registerLogger@Log@PLH@@SAXV?$shared_ptr@VLogger@PLH@@@std@@@Z
	?repeat_n@PLH@@YA?AV?$basic_string@DU?$char_traits@D@std@@V?$allocator@D@2@@std@@V23@_K0@Z
	?reset@?$unique_ptr@$$BY0A@_KU?$default_delete@$$BY0A@_K@std@@@std@@QEAAX$$T@Z
	?resetPreservedFP@FuncFrame@_abi_1_10@asmjit@@QEAAXXZ
	?resize@?$vector@EV?$allocator@E@std@@@std@@QEAAX_K@Z
	?ret@?$EmitterImplicitT@VAssembler@x86@_abi_1_10@asmjit@@@x86@_abi_1_10@asmjit@@QEAAIAEBVImm@34@@Z
	?ret@?$EmitterImplicitT@VAssembler@x86@_abi_1_10@asmjit@@@x86@_abi_1_10@asmjit@@QEAAIXZ
	?ret@Compiler@x86@_abi_1_10@asmjit@@QEAAIAEBVBaseReg@34@@Z
	?ret@FuncSignature@_abi_1_10@asmjit@@QEBA?AW4TypeId@23@XZ
	?safe_mem_read@MemAccessor@PLH@@UEBA_N_K00AEA_K@Z
	?safe_mem_write@MemAccessor@PLH@@UEBA_N_K00AEA_K@Z
	?seekoff@?$basic_stringbuf@DU?$char_traits@D@std@@V?$allocator@D@2@@std@@MEAA?AV?$fpos@U_Mbstatet@@@2@_JHH@Z
	?seekpos@?$basic_stringbuf@DU?$char_traits@D@std@@V?$allocator@D@2@@std@@MEAA?AV?$fpos@U_Mbstatet@@@2@V32@H@Z
	?select_on_container_copy_construction@?$_Default_allocator_traits@V?$allocator@D@std@@@std@@SA?AV?$allocator@D@2@AEBV32@@Z
	?select_on_container_copy_construction@?$_Default_allocator_traits@V?$allocator@E@std@@@std@@SA?AV?$allocator@E@2@AEBV32@@Z
	?select_on_container_copy_construction@?$_Default_allocator_traits@V?$allocator@U?$_Tree_node@U?$pair@$$CBG_K@std@@PEAX@std@@@std@@@std@@SA?AV?$allocator@U?$_Tree_node@U?$pair@$$CBG_K@std@@PEAX@std@@@2@AEBV32@@Z
	?select_on_container_copy_construction@?$_Default_allocator_traits@V?$allocator@VInstruction@PLH@@@std@@@std@@SA?AV?$allocator@VInstruction@PLH@@@2@AEBV32@@Z
	?select_on_container_copy_construction@?$_Default_allocator_traits@V?$allocator@W4OperandType@Instruction@PLH@@@std@@@std@@SA?AV?$allocator@W4OperandType@Instruction@PLH@@@2@AEBV32@@Z
	?select_on_container_copy_construction@?$_Default_allocator_traits@V?$allocator@_W@std@@@std@@SA?AV?$allocator@_W@2@AEBV32@@Z
	?setAbsoluteDisplacement@Instruction@PLH@@QEAAX_K@Z
	?setAddress@Instruction@PLH@@QEAAX_K@Z
	?setArch@Environment@_abi_1_10@asmjit@@QEAAXW4Arch@23@@Z
	?setArg@FuncNode@_abi_1_10@asmjit@@QEAAX_KAEBVBaseReg@23@@Z
	?setArg@InvokeNode@_abi_1_10@asmjit@@QEAAX_KAEBVBaseReg@23@@Z
	?setBranching@Instruction@PLH@@QEAAX_N@Z
	?setCalling@Instruction@PLH@@QEAAX_N@Z
	?setDebug@IHook@PLH@@UEAAX_N@Z
	?setDestination@Instruction@PLH@@QEAAX_K@Z
	?setDetourScheme@x64Detour@PLH@@QEAAXW4detour_scheme_t@12@@Z
	?setDisplacementFields@ZydisDisassembler@PLH@@IEBAXAEAVInstruction@2@PEBUZydisDecodedInstruction_@@PEBUZydisDecodedOperand_@@@Z
	?setDisplacementOffset@Instruction@PLH@@QEAAXE@Z
	?setDisplacementSize@Instruction@PLH@@QEAAXE@Z
	?setHasDisplacement@Instruction@PLH@@QEAAX_N@Z
	?setHooked@IHook@PLH@@UEAA_N_N@Z
	?setImmediate@Instruction@PLH@@QEAAX_K@Z
	?setImmediateSize@Instruction@PLH@@QEAAXE@Z
	?setIndex@BaseMem@_abi_1_10@asmjit@@QEAAXAEBVBaseReg@23@@Z
	?setIndirect@Instruction@PLH@@QEAAX_N@Z
	?setIsFollowCallOnFnAddress@Detour@PLH@@QEAAX_N@Z
	?setLogLevel@ErrorLog@PLH@@QEAAXW4ErrorLevel@2@@Z
	?setMaxDepth@Detour@PLH@@QEAAXE@Z
	?setRegister@Instruction@PLH@@QEAAXW4ZydisRegister_@@@Z
	?setRelativeDisplacement@Instruction@PLH@@QEAAX_J@Z
	?setSize@BaseMem@_abi_1_10@asmjit@@QEAAXI@Z
	?signature@Operand_@_abi_1_10@asmjit@@QEBA?AUOperandSignature@23@XZ
	?singleton@ErrorLog@PLH@@SAAEAV12@XZ
	?singleton@UID@PLH@@SAAEAU?$atomic@J@std@@XZ
	?size@?$_Hash_vec@V?$allocator@V?$_List_unchecked_const_iterator@V?$_List_val@U?$_List_simple_types@UAVehHookImpEntry@PLH@@@std@@@std@@U_Iterator_base0@2@@std@@@std@@@std@@QEBA_KXZ
	?size@?$_Hash_vec@V?$allocator@V?$_List_unchecked_iterator@V?$_List_val@U?$_List_simple_types@U?$pair@$$CB_KV?$shared_ptr@VFBAllocator@PLH@@@std@@@std@@@std@@@std@@@std@@@std@@@std@@QEBA_KXZ
	?size@?$_Hash_vec@V?$allocator@V?$_List_unchecked_iterator@V?$_List_val@U?$_List_simple_types@U?$pair@$$CB_KV?$vector@VInstruction@PLH@@V?$allocator@VInstruction@PLH@@@std@@@std@@@std@@@std@@@std@@@std@@@std@@@std@@QEBA_KXZ
	?size@?$basic_string@DU?$char_traits@D@std@@V?$allocator@D@2@@std@@QEBA_KXZ
	?size@?$basic_string@_WU?$char_traits@_W@std@@V?$allocator@_W@2@@std@@QEBA_KXZ
	?size@?$basic_string_view@_WU?$char_traits@_W@std@@@std@@QEBA_KXZ
	?size@?$initializer_list@E@std@@QEBA_KXZ
	?size@?$initializer_list@VInstruction@PLH@@@std@@QEBA_KXZ
	?size@?$vector@EV?$allocator@E@std@@@std@@QEBA_KXZ
	?size@?$vector@VEffect@@V?$allocator@VEffect@@@std@@@std@@QEBA_KXZ
	?size@?$vector@VInstruction@PLH@@V?$allocator@VInstruction@PLH@@@std@@@std@@QEBA_KXZ
	?size@?$vector@W4TypeId@_abi_1_10@asmjit@@V?$allocator@W4TypeId@_abi_1_10@asmjit@@@std@@@std@@QEBA_KXZ
	?size@Instruction@PLH@@QEBA_KXZ
	?startsWithDisplacement@Instruction@PLH@@QEBA_NXZ
	?str@?$basic_ostringstream@DU?$char_traits@D@std@@V?$allocator@D@2@@std@@QEBA?AV?$basic_string@DU?$char_traits@D@std@@V?$allocator@D@2@@2@XZ
	?str@?$basic_stringbuf@DU?$char_traits@D@std@@V?$allocator@D@2@@std@@QEBA?AV?$basic_string@DU?$char_traits@D@std@@V?$allocator@D@2@@2@XZ
	?str@?$basic_stringstream@DU?$char_traits@D@std@@V?$allocator@D@2@@std@@QEBA?AV?$basic_string@DU?$char_traits@D@std@@V?$allocator@D@2@@2@XZ
	?string_contains@PLH@@YA_NAEBV?$basic_string@DU?$char_traits@D@std@@V?$allocator@D@2@@std@@0@Z
	?swap@?$shared_ptr@VFBAllocator@PLH@@@std@@QEAAXAEAV12@@Z
	?swap@?$shared_ptr@VLogger@PLH@@@std@@QEAAXAEAV12@@Z
	?to_char_type@?$_Narrow_char_traits@DH@std@@SADH@Z
	?to_int_type@?$_Narrow_char_traits@DH@std@@SAHD@Z
	?to_string@std@@YA?AV?$basic_string@DU?$char_traits@D@std@@V?$allocator@D@2@@1@H@Z
	?to_string@std@@YA?AV?$basic_string@DU?$char_traits@D@std@@V?$allocator@D@2@@1@I@Z
	?translate_instruction@PLH@@YA?AV?$optional@UTranslationResult@PLH@@@std@@AEBVInstruction@1@@Z
	?trigger@Effect@@QEAAXXZ
	?type@BaseReg@_abi_1_10@asmjit@@QEBA?AW4RegType@23@XZ
	?unHook@BreakPointHook@PLH@@UEAA_NXZ
	?unHook@Detour@PLH@@UEAA_NXZ
	?unHook@EatHook@PLH@@UEAA_NXZ
	?unHook@HWBreakPointHook@PLH@@UEAA_NXZ
	?unHook@IatHook@PLH@@UEAA_NXZ
	?unHook@VFuncSwapHook@PLH@@UEAA_NXZ
	?unHook@VTableSwapHook@PLH@@UEAA_NXZ
	?unHook@x64Detour@PLH@@UEAA_NXZ
	?underflow@?$basic_stringbuf@DU?$char_traits@D@std@@V?$allocator@D@2@@std@@MEAAHXZ
	?unlock@_Mutex_base@std@@QEAAXXZ
	?updateBranchMap@ZydisDisassembler@PLH@@IEAAAEAV?$vector@VInstruction@PLH@@V?$allocator@VInstruction@PLH@@@std@@@std@@_KAEBVInstruction@2@@Z
	?use_count@?$_Ptr_base@VFBAllocator@PLH@@@std@@QEBAJXZ
	?what@exception@std@@UEBAPEBDXZ
	?writeEncoding@ZydisDisassembler@PLH@@SAXAEBV?$vector@VInstruction@PLH@@V?$allocator@VInstruction@PLH@@@std@@@std@@AEBVMemAccessor@2@@Z
	?writeEncoding@ZydisDisassembler@PLH@@SAXAEBVInstruction@2@AEBVMemAccessor@2@@Z
	?xchg@?$EmitterExplicitT@VAssembler@x86@_abi_1_10@asmjit@@@x86@_abi_1_10@asmjit@@QEAAIAEBVMem@234@AEBVGp@234@@Z
	?zbx@?$EmitterExplicitT@VCompiler@x86@_abi_1_10@asmjit@@@x86@_abi_1_10@asmjit@@QEBA?AVGp@234@XZ
	wmemcpy
